
C:\Users\Madalin\AppData\Local\arduino\sketches\3AD912AEBE808D5EA5FA0D7DA4D1D3CD/proiect_pm.ino.elf:     file format elf32-avr


Disassembly of section .text:

00000000 <__vectors>:
__vectors():
       0:	0c 94 67 00 	jmp	0xce	; 0xce <__ctors_end>
       4:	0c 94 8f 00 	jmp	0x11e	; 0x11e <__bad_interrupt>
       8:	0c 94 8f 00 	jmp	0x11e	; 0x11e <__bad_interrupt>
       c:	0c 94 8f 00 	jmp	0x11e	; 0x11e <__bad_interrupt>
      10:	0c 94 8f 00 	jmp	0x11e	; 0x11e <__bad_interrupt>
      14:	0c 94 8f 00 	jmp	0x11e	; 0x11e <__bad_interrupt>
      18:	0c 94 8f 00 	jmp	0x11e	; 0x11e <__bad_interrupt>
      1c:	0c 94 8f 00 	jmp	0x11e	; 0x11e <__bad_interrupt>
      20:	0c 94 8f 00 	jmp	0x11e	; 0x11e <__bad_interrupt>
      24:	0c 94 8f 00 	jmp	0x11e	; 0x11e <__bad_interrupt>
      28:	0c 94 8f 00 	jmp	0x11e	; 0x11e <__bad_interrupt>
      2c:	0c 94 16 07 	jmp	0xe2c	; 0xe2c <__vector_11>
      30:	0c 94 8f 00 	jmp	0x11e	; 0x11e <__bad_interrupt>
      34:	0c 94 8f 00 	jmp	0x11e	; 0x11e <__bad_interrupt>
      38:	0c 94 8f 00 	jmp	0x11e	; 0x11e <__bad_interrupt>
      3c:	0c 94 8f 00 	jmp	0x11e	; 0x11e <__bad_interrupt>
      40:	0c 94 74 06 	jmp	0xce8	; 0xce8 <__vector_16>
      44:	0c 94 8f 00 	jmp	0x11e	; 0x11e <__bad_interrupt>
      48:	0c 94 e4 06 	jmp	0xdc8	; 0xdc8 <__vector_18>
      4c:	0c 94 be 06 	jmp	0xd7c	; 0xd7c <__vector_19>
      50:	0c 94 8f 00 	jmp	0x11e	; 0x11e <__bad_interrupt>
      54:	0c 94 8f 00 	jmp	0x11e	; 0x11e <__bad_interrupt>
      58:	0c 94 8f 00 	jmp	0x11e	; 0x11e <__bad_interrupt>
      5c:	0c 94 8f 00 	jmp	0x11e	; 0x11e <__bad_interrupt>
      60:	0c 94 d2 07 	jmp	0xfa4	; 0xfa4 <__vector_24>
      64:	0c 94 8f 00 	jmp	0x11e	; 0x11e <__bad_interrupt>

00000068 <__trampolines_end>:
__trampolines_start():
      68:	00 00       	nop
      6a:	00 00       	nop
      6c:	24 00       	.word	0x0024	; ????
      6e:	27 00       	.word	0x0027	; ????
      70:	2a 00       	.word	0x002a	; ????

00000072 <port_to_output_PGM>:
      72:	00 00 00 00 25 00 28 00 2b 00                       ....%.(.+.

0000007c <port_to_input_PGM>:
      7c:	00 00 00 00 23 00 26 00 29 00                       ....#.&.).

00000086 <digital_pin_to_port_PGM>:
      86:	04 04 04 04 04 04 04 04 02 02 02 02 02 02 03 03     ................
      96:	03 03 03 03 02 02 03                                .......

0000009d <digital_pin_to_bit_mask_PGM>:
      9d:	01 02 04 08 10 20 40 80 01 02 04 08 10 20 01 02     ..... @...... ..
      ad:	04 08 10 20 40 80 40                                ... @.@

000000b4 <digital_pin_to_timer_PGM>:
      b4:	00 00 00 09 00 03 02 00 00 04 05 08 00 00 00 00     ................
	...

000000cc <__ctors_start>:
__ctors_start():
      cc:	fd 08       	sbc	r15, r13

000000ce <__ctors_end>:
__dtors_end():
      ce:	11 24       	eor	r1, r1
      d0:	1f be       	out	0x3f, r1	; 63
      d2:	cf ef       	ldi	r28, 0xFF	; 255
      d4:	d8 e0       	ldi	r29, 0x08	; 8
      d6:	de bf       	out	0x3e, r29	; 62
      d8:	cd bf       	out	0x3d, r28	; 61

000000da <__do_copy_data>:
__do_copy_data():
/home/jenkins-mingw32/workspace/avr-gcc-staging/label/Ubuntu14.04x64-mingw32/gcc-build/avr/avr5/libgcc/../../../../gcc/libgcc/config/avr/lib1funcs.S:2409
      da:	12 e0       	ldi	r17, 0x02	; 2
/home/jenkins-mingw32/workspace/avr-gcc-staging/label/Ubuntu14.04x64-mingw32/gcc-build/avr/avr5/libgcc/../../../../gcc/libgcc/config/avr/lib1funcs.S:2410
      dc:	a0 e0       	ldi	r26, 0x00	; 0
/home/jenkins-mingw32/workspace/avr-gcc-staging/label/Ubuntu14.04x64-mingw32/gcc-build/avr/avr5/libgcc/../../../../gcc/libgcc/config/avr/lib1funcs.S:2411
      de:	b1 e0       	ldi	r27, 0x01	; 1
/home/jenkins-mingw32/workspace/avr-gcc-staging/label/Ubuntu14.04x64-mingw32/gcc-build/avr/avr5/libgcc/../../../../gcc/libgcc/config/avr/lib1funcs.S:2412
      e0:	e4 e4       	ldi	r30, 0x44	; 68
/home/jenkins-mingw32/workspace/avr-gcc-staging/label/Ubuntu14.04x64-mingw32/gcc-build/avr/avr5/libgcc/../../../../gcc/libgcc/config/avr/lib1funcs.S:2413
      e2:	fb e1       	ldi	r31, 0x1B	; 27
/home/jenkins-mingw32/workspace/avr-gcc-staging/label/Ubuntu14.04x64-mingw32/gcc-build/avr/avr5/libgcc/../../../../gcc/libgcc/config/avr/lib1funcs.S:2414
      e4:	02 c0       	rjmp	.+4      	; 0xea <__do_copy_data+0x10>
/home/jenkins-mingw32/workspace/avr-gcc-staging/label/Ubuntu14.04x64-mingw32/gcc-build/avr/avr5/libgcc/../../../../gcc/libgcc/config/avr/lib1funcs.S:2417
      e6:	05 90       	lpm	r0, Z+
/home/jenkins-mingw32/workspace/avr-gcc-staging/label/Ubuntu14.04x64-mingw32/gcc-build/avr/avr5/libgcc/../../../../gcc/libgcc/config/avr/lib1funcs.S:2422
      e8:	0d 92       	st	X+, r0
/home/jenkins-mingw32/workspace/avr-gcc-staging/label/Ubuntu14.04x64-mingw32/gcc-build/avr/avr5/libgcc/../../../../gcc/libgcc/config/avr/lib1funcs.S:2424
      ea:	a2 34       	cpi	r26, 0x42	; 66
/home/jenkins-mingw32/workspace/avr-gcc-staging/label/Ubuntu14.04x64-mingw32/gcc-build/avr/avr5/libgcc/../../../../gcc/libgcc/config/avr/lib1funcs.S:2425
      ec:	b1 07       	cpc	r27, r17
/home/jenkins-mingw32/workspace/avr-gcc-staging/label/Ubuntu14.04x64-mingw32/gcc-build/avr/avr5/libgcc/../../../../gcc/libgcc/config/avr/lib1funcs.S:2426
      ee:	d9 f7       	brne	.-10     	; 0xe6 <__do_copy_data+0xc>

000000f0 <__do_clear_bss>:
__do_clear_bss():
/home/jenkins-mingw32/workspace/avr-gcc-staging/label/Ubuntu14.04x64-mingw32/gcc-build/avr/avr5/libgcc/../../../../gcc/libgcc/config/avr/lib1funcs.S:2441
      f0:	23 e0       	ldi	r18, 0x03	; 3
/home/jenkins-mingw32/workspace/avr-gcc-staging/label/Ubuntu14.04x64-mingw32/gcc-build/avr/avr5/libgcc/../../../../gcc/libgcc/config/avr/lib1funcs.S:2442
      f2:	a2 e4       	ldi	r26, 0x42	; 66
/home/jenkins-mingw32/workspace/avr-gcc-staging/label/Ubuntu14.04x64-mingw32/gcc-build/avr/avr5/libgcc/../../../../gcc/libgcc/config/avr/lib1funcs.S:2443
      f4:	b2 e0       	ldi	r27, 0x02	; 2
/home/jenkins-mingw32/workspace/avr-gcc-staging/label/Ubuntu14.04x64-mingw32/gcc-build/avr/avr5/libgcc/../../../../gcc/libgcc/config/avr/lib1funcs.S:2444
      f6:	01 c0       	rjmp	.+2      	; 0xfa <.do_clear_bss_start>

000000f8 <.do_clear_bss_loop>:
/home/jenkins-mingw32/workspace/avr-gcc-staging/label/Ubuntu14.04x64-mingw32/gcc-build/avr/avr5/libgcc/../../../../gcc/libgcc/config/avr/lib1funcs.S:2446
      f8:	1d 92       	st	X+, r1

000000fa <.do_clear_bss_start>:
/home/jenkins-mingw32/workspace/avr-gcc-staging/label/Ubuntu14.04x64-mingw32/gcc-build/avr/avr5/libgcc/../../../../gcc/libgcc/config/avr/lib1funcs.S:2448
      fa:	a6 3d       	cpi	r26, 0xD6	; 214
/home/jenkins-mingw32/workspace/avr-gcc-staging/label/Ubuntu14.04x64-mingw32/gcc-build/avr/avr5/libgcc/../../../../gcc/libgcc/config/avr/lib1funcs.S:2449
      fc:	b2 07       	cpc	r27, r18
/home/jenkins-mingw32/workspace/avr-gcc-staging/label/Ubuntu14.04x64-mingw32/gcc-build/avr/avr5/libgcc/../../../../gcc/libgcc/config/avr/lib1funcs.S:2450
      fe:	e1 f7       	brne	.-8      	; 0xf8 <.do_clear_bss_loop>

00000100 <__do_global_ctors>:
__do_global_ctors():
/home/jenkins-mingw32/workspace/avr-gcc-staging/label/Ubuntu14.04x64-mingw32/gcc-build/avr/avr5/libgcc/../../../../gcc/libgcc/config/avr/lib1funcs.S:2466
     100:	10 e0       	ldi	r17, 0x00	; 0
/home/jenkins-mingw32/workspace/avr-gcc-staging/label/Ubuntu14.04x64-mingw32/gcc-build/avr/avr5/libgcc/../../../../gcc/libgcc/config/avr/lib1funcs.S:2467
     102:	c7 e6       	ldi	r28, 0x67	; 103
/home/jenkins-mingw32/workspace/avr-gcc-staging/label/Ubuntu14.04x64-mingw32/gcc-build/avr/avr5/libgcc/../../../../gcc/libgcc/config/avr/lib1funcs.S:2468
     104:	d0 e0       	ldi	r29, 0x00	; 0
/home/jenkins-mingw32/workspace/avr-gcc-staging/label/Ubuntu14.04x64-mingw32/gcc-build/avr/avr5/libgcc/../../../../gcc/libgcc/config/avr/lib1funcs.S:2472
     106:	04 c0       	rjmp	.+8      	; 0x110 <__do_global_ctors+0x10>
/home/jenkins-mingw32/workspace/avr-gcc-staging/label/Ubuntu14.04x64-mingw32/gcc-build/avr/avr5/libgcc/../../../../gcc/libgcc/config/avr/lib1funcs.S:2474
     108:	21 97       	sbiw	r28, 0x01	; 1
/home/jenkins-mingw32/workspace/avr-gcc-staging/label/Ubuntu14.04x64-mingw32/gcc-build/avr/avr5/libgcc/../../../../gcc/libgcc/config/avr/lib1funcs.S:2480
     10a:	fe 01       	movw	r30, r28
/home/jenkins-mingw32/workspace/avr-gcc-staging/label/Ubuntu14.04x64-mingw32/gcc-build/avr/avr5/libgcc/../../../../gcc/libgcc/config/avr/lib1funcs.S:2481
     10c:	0e 94 9a 0d 	call	0x1b34	; 0x1b34 <__tablejump2__>
/home/jenkins-mingw32/workspace/avr-gcc-staging/label/Ubuntu14.04x64-mingw32/gcc-build/avr/avr5/libgcc/../../../../gcc/libgcc/config/avr/lib1funcs.S:2483
     110:	c6 36       	cpi	r28, 0x66	; 102
/home/jenkins-mingw32/workspace/avr-gcc-staging/label/Ubuntu14.04x64-mingw32/gcc-build/avr/avr5/libgcc/../../../../gcc/libgcc/config/avr/lib1funcs.S:2484
     112:	d1 07       	cpc	r29, r17
/home/jenkins-mingw32/workspace/avr-gcc-staging/label/Ubuntu14.04x64-mingw32/gcc-build/avr/avr5/libgcc/../../../../gcc/libgcc/config/avr/lib1funcs.S:2489
     114:	c9 f7       	brne	.-14     	; 0x108 <__do_global_ctors+0x8>
     116:	0e 94 81 09 	call	0x1302	; 0x1302 <main>
     11a:	0c 94 a0 0d 	jmp	0x1b40	; 0x1b40 <_exit>

0000011e <__bad_interrupt>:
__vector_22():
     11e:	0c 94 00 00 	jmp	0	; 0x0 <__vectors>

00000122 <Servo::write(int) [clone .constprop.18]>:
write():
C:\Users\Madalin\AppData\Local\Arduino15\libraries\Servo\src\avr/Servo.cpp:264
  if(isTimerActive(timer) == false) {
    finISR(timer);
  }
}

void Servo::write(int value)
     122:	8f 92       	push	r8
     124:	9f 92       	push	r9
     126:	af 92       	push	r10
     128:	bf 92       	push	r11
     12a:	ff 92       	push	r15
     12c:	0f 93       	push	r16
     12e:	1f 93       	push	r17
     130:	cf 93       	push	r28
     132:	df 93       	push	r29
writeMicroseconds():
C:\Users\Madalin\AppData\Local\Arduino15\libraries\Servo\src\avr/Servo.cpp:278
}

void Servo::writeMicroseconds(int value)
{
  // calculate and store the values for the given channel
  byte channel = this->servoIndex;
     134:	f0 90 c7 03 	lds	r15, 0x03C7	; 0x8003c7 <yala>
C:\Users\Madalin\AppData\Local\Arduino15\libraries\Servo\src\avr/Servo.cpp:279
  if( (channel < MAX_SERVOS) )   // ensure channel is valid
     138:	2b e0       	ldi	r18, 0x0B	; 11
     13a:	2f 15       	cp	r18, r15
     13c:	08 f4       	brcc	.+2      	; 0x140 <Servo::write(int) [clone .constprop.18]+0x1e>
     13e:	4c c0       	rjmp	.+152    	; 0x1d8 <Servo::write(int) [clone .constprop.18]+0xb6>
write():
C:\Users\Madalin\AppData\Local\Arduino15\libraries\Servo\src\avr/Servo.cpp:270
{
  if(value < MIN_PULSE_WIDTH)
  {  // treat values less than 544 as angles in degrees (valid values in microseconds are handled as microseconds)
    if(value < 0) value = 0;
    if(value > 180) value = 180;
    value = map(value, 0, 180, SERVO_MIN(),  SERVO_MAX());
     140:	20 91 c9 03 	lds	r18, 0x03C9	; 0x8003c9 <yala+0x2>
     144:	08 e5       	ldi	r16, 0x58	; 88
     146:	12 e0       	ldi	r17, 0x02	; 2
     148:	02 1b       	sub	r16, r18
     14a:	11 09       	sbc	r17, r1
     14c:	27 fd       	sbrc	r18, 7
     14e:	13 95       	inc	r17
     150:	00 0f       	add	r16, r16
     152:	11 1f       	adc	r17, r17
     154:	00 0f       	add	r16, r16
     156:	11 1f       	adc	r17, r17
     158:	20 91 c8 03 	lds	r18, 0x03C8	; 0x8003c8 <yala+0x1>
     15c:	c8 e8       	ldi	r28, 0x88	; 136
     15e:	d0 e0       	ldi	r29, 0x00	; 0
     160:	c2 1b       	sub	r28, r18
     162:	d1 09       	sbc	r29, r1
     164:	27 fd       	sbrc	r18, 7
     166:	d3 95       	inc	r29
     168:	cc 0f       	add	r28, r28
     16a:	dd 1f       	adc	r29, r29
     16c:	cc 0f       	add	r28, r28
     16e:	dd 1f       	adc	r29, r29
     170:	4e 01       	movw	r8, r28
     172:	0d 2e       	mov	r0, r29
     174:	00 0c       	add	r0, r0
     176:	aa 08       	sbc	r10, r10
     178:	bb 08       	sbc	r11, r11
     17a:	98 01       	movw	r18, r16
     17c:	01 2e       	mov	r0, r17
     17e:	00 0c       	add	r0, r0
     180:	44 0b       	sbc	r20, r20
     182:	55 0b       	sbc	r21, r21
map():
C:\Users\Madalin\AppData\Local\Arduino15\packages\MiniCore\hardware\avr\3.1.2\cores\MCUdude_corefiles/WMath.cpp:54
  return random(diff) + howsmall;
}

long map(long x, long in_min, long in_max, long out_min, long out_max)
{
  return (x - in_min) * (out_max - out_min) / (in_max - in_min) + out_min;
     184:	28 19       	sub	r18, r8
     186:	39 09       	sbc	r19, r9
     188:	4a 09       	sbc	r20, r10
     18a:	5b 09       	sbc	r21, r11
     18c:	dc 01       	movw	r26, r24
     18e:	0e 94 55 0d 	call	0x1aaa	; 0x1aaa <__mulshisi3>
     192:	24 eb       	ldi	r18, 0xB4	; 180
     194:	30 e0       	ldi	r19, 0x00	; 0
     196:	40 e0       	ldi	r20, 0x00	; 0
     198:	50 e0       	ldi	r21, 0x00	; 0
     19a:	0e 94 2b 0d 	call	0x1a56	; 0x1a56 <__divmodsi4>
     19e:	82 0e       	add	r8, r18
     1a0:	93 1e       	adc	r9, r19
     1a2:	a4 1e       	adc	r10, r20
     1a4:	b5 1e       	adc	r11, r21
writeMicroseconds():
C:\Users\Madalin\AppData\Local\Arduino15\libraries\Servo\src\avr/Servo.cpp:281
{
  // calculate and store the values for the given channel
  byte channel = this->servoIndex;
  if( (channel < MAX_SERVOS) )   // ensure channel is valid
  {
    if( value < SERVO_MIN() )          // ensure pulse width is valid
     1a6:	8c 16       	cp	r8, r28
     1a8:	9d 06       	cpc	r9, r29
     1aa:	2c f0       	brlt	.+10     	; 0x1b6 <Servo::write(int) [clone .constprop.18]+0x94>
     1ac:	e8 01       	movw	r28, r16
     1ae:	80 16       	cp	r8, r16
     1b0:	91 06       	cpc	r9, r17
     1b2:	0c f4       	brge	.+2      	; 0x1b6 <Servo::write(int) [clone .constprop.18]+0x94>
     1b4:	e4 01       	movw	r28, r8
C:\Users\Madalin\AppData\Local\Arduino15\libraries\Servo\src\avr/Servo.cpp:286
      value = SERVO_MIN();
    else if( value > SERVO_MAX() )
      value = SERVO_MAX();

    value = value - TRIM_DURATION;
     1b6:	22 97       	sbiw	r28, 0x02	; 2
C:\Users\Madalin\AppData\Local\Arduino15\libraries\Servo\src\avr/Servo.cpp:287
    value = usToTicks(value);  // convert to ticks after compensating for interrupt overhead - 12 Aug 2009
     1b8:	cc 0f       	add	r28, r28
     1ba:	dd 1f       	adc	r29, r29
C:\Users\Madalin\AppData\Local\Arduino15\libraries\Servo\src\avr/Servo.cpp:289

    uint8_t oldSREG = SREG;
     1bc:	2f b7       	in	r18, 0x3f	; 63
C:\Users\Madalin\AppData\Local\Arduino15\libraries\Servo\src\avr/Servo.cpp:290
    cli();
     1be:	f8 94       	cli
C:\Users\Madalin\AppData\Local\Arduino15\libraries\Servo\src\avr/Servo.cpp:291
    servos[channel].ticks = value;
     1c0:	8f 2d       	mov	r24, r15
     1c2:	90 e0       	ldi	r25, 0x00	; 0
     1c4:	fc 01       	movw	r30, r24
     1c6:	ee 0f       	add	r30, r30
     1c8:	ff 1f       	adc	r31, r31
     1ca:	e8 0f       	add	r30, r24
     1cc:	f9 1f       	adc	r31, r25
     1ce:	ee 55       	subi	r30, 0x5E	; 94
     1d0:	fc 4f       	sbci	r31, 0xFC	; 252
     1d2:	d2 83       	std	Z+2, r29	; 0x02
     1d4:	c1 83       	std	Z+1, r28	; 0x01
C:\Users\Madalin\AppData\Local\Arduino15\libraries\Servo\src\avr/Servo.cpp:292
    SREG = oldSREG;
     1d6:	2f bf       	out	0x3f, r18	; 63
write():
C:\Users\Madalin\AppData\Local\Arduino15\libraries\Servo\src\avr/Servo.cpp:273
    if(value < 0) value = 0;
    if(value > 180) value = 180;
    value = map(value, 0, 180, SERVO_MIN(),  SERVO_MAX());
  }
  this->writeMicroseconds(value);
}
     1d8:	df 91       	pop	r29
     1da:	cf 91       	pop	r28
     1dc:	1f 91       	pop	r17
     1de:	0f 91       	pop	r16
     1e0:	ff 90       	pop	r15
     1e2:	bf 90       	pop	r11
     1e4:	af 90       	pop	r10
     1e6:	9f 90       	pop	r9
     1e8:	8f 90       	pop	r8
     1ea:	08 95       	ret

000001ec <turnOffPWM>:
turnOffPWM():
C:\Users\Madalin\AppData\Local\Arduino15\packages\MiniCore\hardware\avr\3.1.2\cores\MCUdude_corefiles/wiring_digital.c:77
//
//static inline void turnOffPWM(uint8_t timer) __attribute__ ((always_inline));
//static inline void turnOffPWM(uint8_t timer)
static void turnOffPWM(uint8_t timer)
{
  switch (timer)
     1ec:	84 30       	cpi	r24, 0x04	; 4
     1ee:	81 f0       	breq	.+32     	; 0x210 <turnOffPWM+0x24>
     1f0:	28 f4       	brcc	.+10     	; 0x1fc <turnOffPWM+0x10>
     1f2:	82 30       	cpi	r24, 0x02	; 2
     1f4:	e9 f0       	breq	.+58     	; 0x230 <turnOffPWM+0x44>
     1f6:	83 30       	cpi	r24, 0x03	; 3
     1f8:	f9 f0       	breq	.+62     	; 0x238 <turnOffPWM+0x4c>
     1fa:	08 95       	ret
     1fc:	88 30       	cpi	r24, 0x08	; 8
     1fe:	71 f0       	breq	.+28     	; 0x21c <turnOffPWM+0x30>
     200:	89 30       	cpi	r24, 0x09	; 9
     202:	91 f0       	breq	.+36     	; 0x228 <turnOffPWM+0x3c>
     204:	85 30       	cpi	r24, 0x05	; 5
     206:	b9 f4       	brne	.+46     	; 0x236 <turnOffPWM+0x4a>
C:\Users\Madalin\AppData\Local\Arduino15\packages\MiniCore\hardware\avr\3.1.2\cores\MCUdude_corefiles/wiring_digital.c:87
        TCCR1A &= ~_BV(COM1A1);
        break;
    #endif
    #if defined(TCCR1A) && defined(COM1B1)
      case TIMER1B:
        TCCR1A &= ~_BV(COM1B1);
     208:	80 91 80 00 	lds	r24, 0x0080	; 0x800080 <__DATA_REGION_ORIGIN__+0x20>
     20c:	8f 7d       	andi	r24, 0xDF	; 223
     20e:	03 c0       	rjmp	.+6      	; 0x216 <turnOffPWM+0x2a>
C:\Users\Madalin\AppData\Local\Arduino15\packages\MiniCore\hardware\avr\3.1.2\cores\MCUdude_corefiles/wiring_digital.c:82
  switch (timer)
  {
    // Timer1
    #if defined(TCCR1A) && defined(COM1A1)
      case TIMER1A:
        TCCR1A &= ~_BV(COM1A1);
     210:	80 91 80 00 	lds	r24, 0x0080	; 0x800080 <__DATA_REGION_ORIGIN__+0x20>
     214:	8f 77       	andi	r24, 0x7F	; 127
C:\Users\Madalin\AppData\Local\Arduino15\packages\MiniCore\hardware\avr\3.1.2\cores\MCUdude_corefiles/wiring_digital.c:87
        break;
    #endif
    #if defined(TCCR1A) && defined(COM1B1)
      case TIMER1B:
        TCCR1A &= ~_BV(COM1B1);
     216:	80 93 80 00 	sts	0x0080, r24	; 0x800080 <__DATA_REGION_ORIGIN__+0x20>
     21a:	08 95       	ret
C:\Users\Madalin\AppData\Local\Arduino15\packages\MiniCore\hardware\avr\3.1.2\cores\MCUdude_corefiles/wiring_digital.c:104
        TCCR2 &= ~_BV(COM21);
        break;
    #endif
    #if defined(TCCR2A) && defined(COM2A1)
      case TIMER2A:
        TCCR2A &= ~_BV(COM2A1);
     21c:	80 91 b0 00 	lds	r24, 0x00B0	; 0x8000b0 <__DATA_REGION_ORIGIN__+0x50>
     220:	8f 77       	andi	r24, 0x7F	; 127
C:\Users\Madalin\AppData\Local\Arduino15\packages\MiniCore\hardware\avr\3.1.2\cores\MCUdude_corefiles/wiring_digital.c:109
        break;
    #endif
    #if defined(TCCR2A) && defined(COM2B1)
      case TIMER2B:
        TCCR2A &= ~_BV(COM2B1);
     222:	80 93 b0 00 	sts	0x00B0, r24	; 0x8000b0 <__DATA_REGION_ORIGIN__+0x50>
     226:	08 95       	ret
     228:	80 91 b0 00 	lds	r24, 0x00B0	; 0x8000b0 <__DATA_REGION_ORIGIN__+0x50>
     22c:	8f 7d       	andi	r24, 0xDF	; 223
     22e:	f9 cf       	rjmp	.-14     	; 0x222 <turnOffPWM+0x36>
C:\Users\Madalin\AppData\Local\Arduino15\packages\MiniCore\hardware\avr\3.1.2\cores\MCUdude_corefiles/wiring_digital.c:176
        TCCR0 &= ~_BV(COM01);
        break;
    #endif
    #if defined(TCCR0A) && defined(COM0A1)
      case TIMER0A:
        TCCR0A &= ~_BV(COM0A1);
     230:	84 b5       	in	r24, 0x24	; 36
     232:	8f 77       	andi	r24, 0x7F	; 127
C:\Users\Madalin\AppData\Local\Arduino15\packages\MiniCore\hardware\avr\3.1.2\cores\MCUdude_corefiles/wiring_digital.c:181
        break;
    #endif
    #if defined(TCCR0A) && defined(COM0B1)
      case TIMER0B:
        TCCR0A &= ~_BV(COM0B1);
     234:	84 bd       	out	0x24, r24	; 36
C:\Users\Madalin\AppData\Local\Arduino15\packages\MiniCore\hardware\avr\3.1.2\cores\MCUdude_corefiles/wiring_digital.c:185
        break;
    #endif
  }
}
     236:	08 95       	ret
C:\Users\Madalin\AppData\Local\Arduino15\packages\MiniCore\hardware\avr\3.1.2\cores\MCUdude_corefiles/wiring_digital.c:181
        TCCR0A &= ~_BV(COM0A1);
        break;
    #endif
    #if defined(TCCR0A) && defined(COM0B1)
      case TIMER0B:
        TCCR0A &= ~_BV(COM0B1);
     238:	84 b5       	in	r24, 0x24	; 36
     23a:	8f 7d       	andi	r24, 0xDF	; 223
     23c:	fb cf       	rjmp	.-10     	; 0x234 <turnOffPWM+0x48>

0000023e <digitalRead>:
digitalRead():
C:\Users\Madalin\AppData\Local\Arduino15\packages\MiniCore\hardware\avr\3.1.2\cores\MCUdude_corefiles/wiring_digital.c:215

  SREG = oldSREG;
}

int digitalRead(uint8_t pin)
{
     23e:	cf 93       	push	r28
     240:	df 93       	push	r29
C:\Users\Madalin\AppData\Local\Arduino15\packages\MiniCore\hardware\avr\3.1.2\cores\MCUdude_corefiles/wiring_digital.c:216
  uint8_t timer = digitalPinToTimer(pin);
     242:	28 2f       	mov	r18, r24
     244:	30 e0       	ldi	r19, 0x00	; 0
     246:	f9 01       	movw	r30, r18
     248:	ec 54       	subi	r30, 0x4C	; 76
     24a:	ff 4f       	sbci	r31, 0xFF	; 255
     24c:	84 91       	lpm	r24, Z
C:\Users\Madalin\AppData\Local\Arduino15\packages\MiniCore\hardware\avr\3.1.2\cores\MCUdude_corefiles/wiring_digital.c:217
  uint8_t bit = digitalPinToBitMask(pin);
     24e:	f9 01       	movw	r30, r18
     250:	e3 56       	subi	r30, 0x63	; 99
     252:	ff 4f       	sbci	r31, 0xFF	; 255
     254:	d4 91       	lpm	r29, Z
C:\Users\Madalin\AppData\Local\Arduino15\packages\MiniCore\hardware\avr\3.1.2\cores\MCUdude_corefiles/wiring_digital.c:218
  uint8_t port = digitalPinToPort(pin);
     256:	f9 01       	movw	r30, r18
     258:	ea 57       	subi	r30, 0x7A	; 122
     25a:	ff 4f       	sbci	r31, 0xFF	; 255
     25c:	c4 91       	lpm	r28, Z
C:\Users\Madalin\AppData\Local\Arduino15\packages\MiniCore\hardware\avr\3.1.2\cores\MCUdude_corefiles/wiring_digital.c:220

  if (port == NOT_A_PIN) return LOW;
     25e:	cc 23       	and	r28, r28
     260:	a1 f0       	breq	.+40     	; 0x28a <digitalRead+0x4c>
C:\Users\Madalin\AppData\Local\Arduino15\packages\MiniCore\hardware\avr\3.1.2\cores\MCUdude_corefiles/wiring_digital.c:224

  // If the pin that support PWM output, we need to turn it off
  // before getting a digital reading.
  if (timer != NOT_ON_TIMER) turnOffPWM(timer);
     262:	81 11       	cpse	r24, r1
     264:	0e 94 f6 00 	call	0x1ec	; 0x1ec <turnOffPWM>
C:\Users\Madalin\AppData\Local\Arduino15\packages\MiniCore\hardware\avr\3.1.2\cores\MCUdude_corefiles/wiring_digital.c:226

  if (*portInputRegister(port) & bit) return HIGH;
     268:	ec 2f       	mov	r30, r28
     26a:	f0 e0       	ldi	r31, 0x00	; 0
     26c:	ee 0f       	add	r30, r30
     26e:	ff 1f       	adc	r31, r31
     270:	e4 58       	subi	r30, 0x84	; 132
     272:	ff 4f       	sbci	r31, 0xFF	; 255
     274:	a5 91       	lpm	r26, Z+
     276:	b4 91       	lpm	r27, Z
     278:	ec 91       	ld	r30, X
     27a:	ed 23       	and	r30, r29
     27c:	81 e0       	ldi	r24, 0x01	; 1
     27e:	90 e0       	ldi	r25, 0x00	; 0
     280:	09 f4       	brne	.+2      	; 0x284 <digitalRead+0x46>
     282:	80 e0       	ldi	r24, 0x00	; 0
C:\Users\Madalin\AppData\Local\Arduino15\packages\MiniCore\hardware\avr\3.1.2\cores\MCUdude_corefiles/wiring_digital.c:228
  return LOW;
}
     284:	df 91       	pop	r29
     286:	cf 91       	pop	r28
     288:	08 95       	ret
C:\Users\Madalin\AppData\Local\Arduino15\packages\MiniCore\hardware\avr\3.1.2\cores\MCUdude_corefiles/wiring_digital.c:220
{
  uint8_t timer = digitalPinToTimer(pin);
  uint8_t bit = digitalPinToBitMask(pin);
  uint8_t port = digitalPinToPort(pin);

  if (port == NOT_A_PIN) return LOW;
     28a:	80 e0       	ldi	r24, 0x00	; 0
     28c:	90 e0       	ldi	r25, 0x00	; 0
     28e:	fa cf       	rjmp	.-12     	; 0x284 <digitalRead+0x46>

00000290 <digitalWrite>:
digitalWrite():
C:\Users\Madalin\AppData\Local\Arduino15\packages\MiniCore\hardware\avr\3.1.2\cores\MCUdude_corefiles/wiring_digital.c:188
    #endif
  }
}

void digitalWrite(uint8_t pin, uint8_t val)
{
     290:	1f 93       	push	r17
     292:	cf 93       	push	r28
     294:	df 93       	push	r29
C:\Users\Madalin\AppData\Local\Arduino15\packages\MiniCore\hardware\avr\3.1.2\cores\MCUdude_corefiles/wiring_digital.c:189
  uint8_t timer = digitalPinToTimer(pin);
     296:	28 2f       	mov	r18, r24
     298:	30 e0       	ldi	r19, 0x00	; 0
     29a:	f9 01       	movw	r30, r18
     29c:	ec 54       	subi	r30, 0x4C	; 76
     29e:	ff 4f       	sbci	r31, 0xFF	; 255
     2a0:	84 91       	lpm	r24, Z
C:\Users\Madalin\AppData\Local\Arduino15\packages\MiniCore\hardware\avr\3.1.2\cores\MCUdude_corefiles/wiring_digital.c:190
  uint8_t bit = digitalPinToBitMask(pin);
     2a2:	f9 01       	movw	r30, r18
     2a4:	e3 56       	subi	r30, 0x63	; 99
     2a6:	ff 4f       	sbci	r31, 0xFF	; 255
     2a8:	d4 91       	lpm	r29, Z
C:\Users\Madalin\AppData\Local\Arduino15\packages\MiniCore\hardware\avr\3.1.2\cores\MCUdude_corefiles/wiring_digital.c:191
  uint8_t port = digitalPinToPort(pin);
     2aa:	f9 01       	movw	r30, r18
     2ac:	ea 57       	subi	r30, 0x7A	; 122
     2ae:	ff 4f       	sbci	r31, 0xFF	; 255
     2b0:	c4 91       	lpm	r28, Z
C:\Users\Madalin\AppData\Local\Arduino15\packages\MiniCore\hardware\avr\3.1.2\cores\MCUdude_corefiles/wiring_digital.c:194
  volatile uint8_t *out;

  if (port == NOT_A_PIN) return;
     2b2:	cc 23       	and	r28, r28
     2b4:	a9 f0       	breq	.+42     	; 0x2e0 <digitalWrite+0x50>
     2b6:	16 2f       	mov	r17, r22
C:\Users\Madalin\AppData\Local\Arduino15\packages\MiniCore\hardware\avr\3.1.2\cores\MCUdude_corefiles/wiring_digital.c:198

  // If the pin that support PWM output, we need to turn it off
  // before doing a digital write.
  if (timer != NOT_ON_TIMER) turnOffPWM(timer);
     2b8:	81 11       	cpse	r24, r1
     2ba:	0e 94 f6 00 	call	0x1ec	; 0x1ec <turnOffPWM>
C:\Users\Madalin\AppData\Local\Arduino15\packages\MiniCore\hardware\avr\3.1.2\cores\MCUdude_corefiles/wiring_digital.c:200

  out = portOutputRegister(port);
     2be:	ec 2f       	mov	r30, r28
     2c0:	f0 e0       	ldi	r31, 0x00	; 0
     2c2:	ee 0f       	add	r30, r30
     2c4:	ff 1f       	adc	r31, r31
     2c6:	ee 58       	subi	r30, 0x8E	; 142
     2c8:	ff 4f       	sbci	r31, 0xFF	; 255
     2ca:	a5 91       	lpm	r26, Z+
     2cc:	b4 91       	lpm	r27, Z
C:\Users\Madalin\AppData\Local\Arduino15\packages\MiniCore\hardware\avr\3.1.2\cores\MCUdude_corefiles/wiring_digital.c:202

  uint8_t oldSREG = SREG;
     2ce:	8f b7       	in	r24, 0x3f	; 63
C:\Users\Madalin\AppData\Local\Arduino15\packages\MiniCore\hardware\avr\3.1.2\cores\MCUdude_corefiles/wiring_digital.c:203
  cli();
     2d0:	f8 94       	cli
C:\Users\Madalin\AppData\Local\Arduino15\packages\MiniCore\hardware\avr\3.1.2\cores\MCUdude_corefiles/wiring_digital.c:206

  if (val == LOW) {
    *out &= ~bit;
     2d2:	ec 91       	ld	r30, X
C:\Users\Madalin\AppData\Local\Arduino15\packages\MiniCore\hardware\avr\3.1.2\cores\MCUdude_corefiles/wiring_digital.c:205
  out = portOutputRegister(port);

  uint8_t oldSREG = SREG;
  cli();

  if (val == LOW) {
     2d4:	11 11       	cpse	r17, r1
     2d6:	08 c0       	rjmp	.+16     	; 0x2e8 <digitalWrite+0x58>
C:\Users\Madalin\AppData\Local\Arduino15\packages\MiniCore\hardware\avr\3.1.2\cores\MCUdude_corefiles/wiring_digital.c:206
    *out &= ~bit;
     2d8:	d0 95       	com	r29
     2da:	de 23       	and	r29, r30
C:\Users\Madalin\AppData\Local\Arduino15\packages\MiniCore\hardware\avr\3.1.2\cores\MCUdude_corefiles/wiring_digital.c:208
  } else {
    *out |= bit;
     2dc:	dc 93       	st	X, r29
C:\Users\Madalin\AppData\Local\Arduino15\packages\MiniCore\hardware\avr\3.1.2\cores\MCUdude_corefiles/wiring_digital.c:211
  }

  SREG = oldSREG;
     2de:	8f bf       	out	0x3f, r24	; 63
C:\Users\Madalin\AppData\Local\Arduino15\packages\MiniCore\hardware\avr\3.1.2\cores\MCUdude_corefiles/wiring_digital.c:212
}
     2e0:	df 91       	pop	r29
     2e2:	cf 91       	pop	r28
     2e4:	1f 91       	pop	r17
     2e6:	08 95       	ret
C:\Users\Madalin\AppData\Local\Arduino15\packages\MiniCore\hardware\avr\3.1.2\cores\MCUdude_corefiles/wiring_digital.c:208
  cli();

  if (val == LOW) {
    *out &= ~bit;
  } else {
    *out |= bit;
     2e8:	de 2b       	or	r29, r30
     2ea:	f8 cf       	rjmp	.-16     	; 0x2dc <digitalWrite+0x4c>

000002ec <pinMode>:
pinMode():
C:\Users\Madalin\AppData\Local\Arduino15\packages\MiniCore\hardware\avr\3.1.2\cores\MCUdude_corefiles/wiring_digital.c:30
#define ARDUINO_MAIN
#include "wiring_private.h"
#include "pins_arduino.h"

void pinMode(uint8_t pin, uint8_t mode)
{
     2ec:	cf 93       	push	r28
     2ee:	df 93       	push	r29
C:\Users\Madalin\AppData\Local\Arduino15\packages\MiniCore\hardware\avr\3.1.2\cores\MCUdude_corefiles/wiring_digital.c:31
  uint8_t bit = digitalPinToBitMask(pin);
     2f0:	90 e0       	ldi	r25, 0x00	; 0
     2f2:	fc 01       	movw	r30, r24
     2f4:	e3 56       	subi	r30, 0x63	; 99
     2f6:	ff 4f       	sbci	r31, 0xFF	; 255
     2f8:	24 91       	lpm	r18, Z
C:\Users\Madalin\AppData\Local\Arduino15\packages\MiniCore\hardware\avr\3.1.2\cores\MCUdude_corefiles/wiring_digital.c:32
  uint8_t port = digitalPinToPort(pin);
     2fa:	8a 57       	subi	r24, 0x7A	; 122
     2fc:	9f 4f       	sbci	r25, 0xFF	; 255
     2fe:	fc 01       	movw	r30, r24
     300:	84 91       	lpm	r24, Z
C:\Users\Madalin\AppData\Local\Arduino15\packages\MiniCore\hardware\avr\3.1.2\cores\MCUdude_corefiles/wiring_digital.c:35
  volatile uint8_t *reg, *out;

  if (port == NOT_A_PIN) return;
     302:	88 23       	and	r24, r24
     304:	d1 f0       	breq	.+52     	; 0x33a <pinMode+0x4e>
C:\Users\Madalin\AppData\Local\Arduino15\packages\MiniCore\hardware\avr\3.1.2\cores\MCUdude_corefiles/wiring_digital.c:38

  // JWS: can I let the optimizer do this?
  reg = portModeRegister(port);
     306:	90 e0       	ldi	r25, 0x00	; 0
     308:	88 0f       	add	r24, r24
     30a:	99 1f       	adc	r25, r25
     30c:	fc 01       	movw	r30, r24
     30e:	e8 59       	subi	r30, 0x98	; 152
     310:	ff 4f       	sbci	r31, 0xFF	; 255
     312:	a5 91       	lpm	r26, Z+
     314:	b4 91       	lpm	r27, Z
C:\Users\Madalin\AppData\Local\Arduino15\packages\MiniCore\hardware\avr\3.1.2\cores\MCUdude_corefiles/wiring_digital.c:39
  out = portOutputRegister(port);
     316:	fc 01       	movw	r30, r24
     318:	ee 58       	subi	r30, 0x8E	; 142
     31a:	ff 4f       	sbci	r31, 0xFF	; 255
     31c:	c5 91       	lpm	r28, Z+
     31e:	d4 91       	lpm	r29, Z
C:\Users\Madalin\AppData\Local\Arduino15\packages\MiniCore\hardware\avr\3.1.2\cores\MCUdude_corefiles/wiring_digital.c:47
    uint8_t oldSREG = SREG;
    cli();
    *reg &= ~bit;
    *out &= ~bit;
    SREG = oldSREG;
  } else if (mode == INPUT_PULLUP) {
     320:	62 30       	cpi	r22, 0x02	; 2
     322:	71 f4       	brne	.+28     	; 0x340 <pinMode+0x54>
C:\Users\Madalin\AppData\Local\Arduino15\packages\MiniCore\hardware\avr\3.1.2\cores\MCUdude_corefiles/wiring_digital.c:48
    uint8_t oldSREG = SREG;
     324:	9f b7       	in	r25, 0x3f	; 63
C:\Users\Madalin\AppData\Local\Arduino15\packages\MiniCore\hardware\avr\3.1.2\cores\MCUdude_corefiles/wiring_digital.c:49
    cli();
     326:	f8 94       	cli
C:\Users\Madalin\AppData\Local\Arduino15\packages\MiniCore\hardware\avr\3.1.2\cores\MCUdude_corefiles/wiring_digital.c:50
    *reg &= ~bit;
     328:	3c 91       	ld	r19, X
     32a:	82 2f       	mov	r24, r18
     32c:	80 95       	com	r24
     32e:	83 23       	and	r24, r19
     330:	8c 93       	st	X, r24
C:\Users\Madalin\AppData\Local\Arduino15\packages\MiniCore\hardware\avr\3.1.2\cores\MCUdude_corefiles/wiring_digital.c:51
    *out |= bit;
     332:	e8 81       	ld	r30, Y
     334:	2e 2b       	or	r18, r30
     336:	28 83       	st	Y, r18
C:\Users\Madalin\AppData\Local\Arduino15\packages\MiniCore\hardware\avr\3.1.2\cores\MCUdude_corefiles/wiring_digital.c:52
    SREG = oldSREG;
     338:	9f bf       	out	0x3f, r25	; 63
C:\Users\Madalin\AppData\Local\Arduino15\packages\MiniCore\hardware\avr\3.1.2\cores\MCUdude_corefiles/wiring_digital.c:59
    uint8_t oldSREG = SREG;
    cli();
    *reg |= bit;
    SREG = oldSREG;
  }
}
     33a:	df 91       	pop	r29
     33c:	cf 91       	pop	r28
     33e:	08 95       	ret
C:\Users\Madalin\AppData\Local\Arduino15\packages\MiniCore\hardware\avr\3.1.2\cores\MCUdude_corefiles/wiring_digital.c:54
    cli();
    *reg &= ~bit;
    *out |= bit;
    SREG = oldSREG;
  } else {
    uint8_t oldSREG = SREG;
     340:	8f b7       	in	r24, 0x3f	; 63
C:\Users\Madalin\AppData\Local\Arduino15\packages\MiniCore\hardware\avr\3.1.2\cores\MCUdude_corefiles/wiring_digital.c:55
    cli();
     342:	f8 94       	cli
C:\Users\Madalin\AppData\Local\Arduino15\packages\MiniCore\hardware\avr\3.1.2\cores\MCUdude_corefiles/wiring_digital.c:56
    *reg |= bit;
     344:	ec 91       	ld	r30, X
     346:	2e 2b       	or	r18, r30
     348:	2c 93       	st	X, r18
C:\Users\Madalin\AppData\Local\Arduino15\packages\MiniCore\hardware\avr\3.1.2\cores\MCUdude_corefiles/wiring_digital.c:57
    SREG = oldSREG;
     34a:	8f bf       	out	0x3f, r24	; 63
     34c:	f6 cf       	rjmp	.-20     	; 0x33a <pinMode+0x4e>

0000034e <analogWrite>:
analogWrite():
C:\Users\Madalin\AppData\Local\Arduino15\packages\MiniCore\hardware\avr\3.1.2\cores\MCUdude_corefiles/wiring_analog.c:95
// Right now, PWM output only works on the pins with
// hardware support.  These are defined in the appropriate
// pins_*.c file.  For the rest of the pins, we default
// to digital output.
void analogWrite(uint8_t pin, int val)
{
     34e:	1f 93       	push	r17
     350:	cf 93       	push	r28
     352:	df 93       	push	r29
     354:	18 2f       	mov	r17, r24
     356:	eb 01       	movw	r28, r22
C:\Users\Madalin\AppData\Local\Arduino15\packages\MiniCore\hardware\avr\3.1.2\cores\MCUdude_corefiles/wiring_analog.c:101
  // We need to make sure the PWM output is enabled for those pins
  // that support it, as we turn it off when digitally reading or
  // writing with them.  Also, make sure the pin is in output mode
  // for consistenty with Wiring, which doesn't require a pinMode
  // call for the analog output pins.
  pinMode(pin, OUTPUT);
     358:	61 e0       	ldi	r22, 0x01	; 1
     35a:	0e 94 76 01 	call	0x2ec	; 0x2ec <pinMode>
C:\Users\Madalin\AppData\Local\Arduino15\packages\MiniCore\hardware\avr\3.1.2\cores\MCUdude_corefiles/wiring_analog.c:102
  if (val == 0)
     35e:	20 97       	sbiw	r28, 0x00	; 0
     360:	39 f4       	brne	.+14     	; 0x370 <analogWrite+0x22>
C:\Users\Madalin\AppData\Local\Arduino15\packages\MiniCore\hardware\avr\3.1.2\cores\MCUdude_corefiles/wiring_analog.c:104
  {
    digitalWrite(pin, LOW);
     362:	60 e0       	ldi	r22, 0x00	; 0
C:\Users\Madalin\AppData\Local\Arduino15\packages\MiniCore\hardware\avr\3.1.2\cores\MCUdude_corefiles/wiring_analog.c:108
  }
  else if (val == 255)
  {
    digitalWrite(pin, HIGH);
     364:	81 2f       	mov	r24, r17
C:\Users\Madalin\AppData\Local\Arduino15\packages\MiniCore\hardware\avr\3.1.2\cores\MCUdude_corefiles/wiring_analog.c:299
        } else {
          digitalWrite(pin, HIGH);
        }
    }
  }
}
     366:	df 91       	pop	r29
     368:	cf 91       	pop	r28
     36a:	1f 91       	pop	r17
C:\Users\Madalin\AppData\Local\Arduino15\packages\MiniCore\hardware\avr\3.1.2\cores\MCUdude_corefiles/wiring_analog.c:108
  {
    digitalWrite(pin, LOW);
  }
  else if (val == 255)
  {
    digitalWrite(pin, HIGH);
     36c:	0c 94 48 01 	jmp	0x290	; 0x290 <digitalWrite>
C:\Users\Madalin\AppData\Local\Arduino15\packages\MiniCore\hardware\avr\3.1.2\cores\MCUdude_corefiles/wiring_analog.c:106
  pinMode(pin, OUTPUT);
  if (val == 0)
  {
    digitalWrite(pin, LOW);
  }
  else if (val == 255)
     370:	cf 3f       	cpi	r28, 0xFF	; 255
     372:	d1 05       	cpc	r29, r1
     374:	11 f4       	brne	.+4      	; 0x37a <analogWrite+0x2c>
C:\Users\Madalin\AppData\Local\Arduino15\packages\MiniCore\hardware\avr\3.1.2\cores\MCUdude_corefiles/wiring_analog.c:108
  {
    digitalWrite(pin, HIGH);
     376:	61 e0       	ldi	r22, 0x01	; 1
     378:	f5 cf       	rjmp	.-22     	; 0x364 <analogWrite+0x16>
C:\Users\Madalin\AppData\Local\Arduino15\packages\MiniCore\hardware\avr\3.1.2\cores\MCUdude_corefiles/wiring_analog.c:112
  }
  else
  {
    switch(digitalPinToTimer(pin))
     37a:	e1 2f       	mov	r30, r17
     37c:	f0 e0       	ldi	r31, 0x00	; 0
     37e:	ec 54       	subi	r30, 0x4C	; 76
     380:	ff 4f       	sbci	r31, 0xFF	; 255
     382:	e4 91       	lpm	r30, Z
     384:	e4 30       	cpi	r30, 0x04	; 4
     386:	31 f1       	breq	.+76     	; 0x3d4 <analogWrite+0x86>
     388:	40 f4       	brcc	.+16     	; 0x39a <analogWrite+0x4c>
     38a:	e2 30       	cpi	r30, 0x02	; 2
     38c:	b1 f0       	breq	.+44     	; 0x3ba <analogWrite+0x6c>
     38e:	e3 30       	cpi	r30, 0x03	; 3
     390:	e1 f0       	breq	.+56     	; 0x3ca <analogWrite+0x7c>
C:\Users\Madalin\AppData\Local\Arduino15\packages\MiniCore\hardware\avr\3.1.2\cores\MCUdude_corefiles/wiring_analog.c:292
        break;
      #endif

      case NOT_ON_TIMER:
      default:
        if (val < 128) {
     392:	c0 38       	cpi	r28, 0x80	; 128
     394:	d1 05       	cpc	r29, r1
     396:	7c f7       	brge	.-34     	; 0x376 <analogWrite+0x28>
     398:	e4 cf       	rjmp	.-56     	; 0x362 <analogWrite+0x14>
C:\Users\Madalin\AppData\Local\Arduino15\packages\MiniCore\hardware\avr\3.1.2\cores\MCUdude_corefiles/wiring_analog.c:112
  {
    digitalWrite(pin, HIGH);
  }
  else
  {
    switch(digitalPinToTimer(pin))
     39a:	e8 30       	cpi	r30, 0x08	; 8
     39c:	29 f1       	breq	.+74     	; 0x3e8 <analogWrite+0x9a>
     39e:	e9 30       	cpi	r30, 0x09	; 9
     3a0:	59 f1       	breq	.+86     	; 0x3f8 <analogWrite+0xaa>
     3a2:	e5 30       	cpi	r30, 0x05	; 5
     3a4:	b1 f7       	brne	.-20     	; 0x392 <analogWrite+0x44>
C:\Users\Madalin\AppData\Local\Arduino15\packages\MiniCore\hardware\avr\3.1.2\cores\MCUdude_corefiles/wiring_analog.c:156
      #endif

      #if defined(TCCR1A) && defined(COM1B1)
      case TIMER1B:
        // connect pwm to pin on timer 1, channel B
        TCCR1A |= _BV(COM1B1);
     3a6:	80 91 80 00 	lds	r24, 0x0080	; 0x800080 <__DATA_REGION_ORIGIN__+0x20>
     3aa:	80 62       	ori	r24, 0x20	; 32
     3ac:	80 93 80 00 	sts	0x0080, r24	; 0x800080 <__DATA_REGION_ORIGIN__+0x20>
C:\Users\Madalin\AppData\Local\Arduino15\packages\MiniCore\hardware\avr\3.1.2\cores\MCUdude_corefiles/wiring_analog.c:157
        OCR1B = val; // set pwm duty
     3b0:	d0 93 8b 00 	sts	0x008B, r29	; 0x80008b <__DATA_REGION_ORIGIN__+0x2b>
     3b4:	c0 93 8a 00 	sts	0x008A, r28	; 0x80008a <__DATA_REGION_ORIGIN__+0x2a>
     3b8:	04 c0       	rjmp	.+8      	; 0x3c2 <analogWrite+0x74>
C:\Users\Madalin\AppData\Local\Arduino15\packages\MiniCore\hardware\avr\3.1.2\cores\MCUdude_corefiles/wiring_analog.c:132
      #endif

      #if defined(TCCR0A) && defined(COM0A1)
      case TIMER0A:
        // connect pwm to pin on timer 0, channel A
        TCCR0A |= _BV(COM0A1);
     3ba:	84 b5       	in	r24, 0x24	; 36
     3bc:	80 68       	ori	r24, 0x80	; 128
     3be:	84 bd       	out	0x24, r24	; 36
C:\Users\Madalin\AppData\Local\Arduino15\packages\MiniCore\hardware\avr\3.1.2\cores\MCUdude_corefiles/wiring_analog.c:133
        OCR0A = val; // set pwm duty
     3c0:	c7 bd       	out	0x27, r28	; 39
C:\Users\Madalin\AppData\Local\Arduino15\packages\MiniCore\hardware\avr\3.1.2\cores\MCUdude_corefiles/wiring_analog.c:299
        } else {
          digitalWrite(pin, HIGH);
        }
    }
  }
}
     3c2:	df 91       	pop	r29
     3c4:	cf 91       	pop	r28
     3c6:	1f 91       	pop	r17
     3c8:	08 95       	ret
C:\Users\Madalin\AppData\Local\Arduino15\packages\MiniCore\hardware\avr\3.1.2\cores\MCUdude_corefiles/wiring_analog.c:140
      #endif

      #if defined(TCCR0A) && defined(COM0B1)
      case TIMER0B:
        // connect pwm to pin on timer 0, channel B
        TCCR0A |= _BV(COM0B1);
     3ca:	84 b5       	in	r24, 0x24	; 36
     3cc:	80 62       	ori	r24, 0x20	; 32
     3ce:	84 bd       	out	0x24, r24	; 36
C:\Users\Madalin\AppData\Local\Arduino15\packages\MiniCore\hardware\avr\3.1.2\cores\MCUdude_corefiles/wiring_analog.c:141
        OCR0B = val; // set pwm duty
     3d0:	c8 bd       	out	0x28, r28	; 40
     3d2:	f7 cf       	rjmp	.-18     	; 0x3c2 <analogWrite+0x74>
C:\Users\Madalin\AppData\Local\Arduino15\packages\MiniCore\hardware\avr\3.1.2\cores\MCUdude_corefiles/wiring_analog.c:148
      #endif

      #if defined(TCCR1A) && defined(COM1A1)
      case TIMER1A:
        // connect pwm to pin on timer 1, channel A
        TCCR1A |= _BV(COM1A1);
     3d4:	80 91 80 00 	lds	r24, 0x0080	; 0x800080 <__DATA_REGION_ORIGIN__+0x20>
     3d8:	80 68       	ori	r24, 0x80	; 128
     3da:	80 93 80 00 	sts	0x0080, r24	; 0x800080 <__DATA_REGION_ORIGIN__+0x20>
C:\Users\Madalin\AppData\Local\Arduino15\packages\MiniCore\hardware\avr\3.1.2\cores\MCUdude_corefiles/wiring_analog.c:149
        OCR1A = val; // set pwm duty
     3de:	d0 93 89 00 	sts	0x0089, r29	; 0x800089 <__DATA_REGION_ORIGIN__+0x29>
     3e2:	c0 93 88 00 	sts	0x0088, r28	; 0x800088 <__DATA_REGION_ORIGIN__+0x28>
     3e6:	ed cf       	rjmp	.-38     	; 0x3c2 <analogWrite+0x74>
C:\Users\Madalin\AppData\Local\Arduino15\packages\MiniCore\hardware\avr\3.1.2\cores\MCUdude_corefiles/wiring_analog.c:180
      #endif

      #if defined(TCCR2A) && defined(COM2A1)
      case TIMER2A:
        // connect pwm to pin on timer 2, channel A
        TCCR2A |= _BV(COM2A1);
     3e8:	80 91 b0 00 	lds	r24, 0x00B0	; 0x8000b0 <__DATA_REGION_ORIGIN__+0x50>
     3ec:	80 68       	ori	r24, 0x80	; 128
     3ee:	80 93 b0 00 	sts	0x00B0, r24	; 0x8000b0 <__DATA_REGION_ORIGIN__+0x50>
C:\Users\Madalin\AppData\Local\Arduino15\packages\MiniCore\hardware\avr\3.1.2\cores\MCUdude_corefiles/wiring_analog.c:181
        OCR2A = val; // set pwm duty
     3f2:	c0 93 b3 00 	sts	0x00B3, r28	; 0x8000b3 <__DATA_REGION_ORIGIN__+0x53>
     3f6:	e5 cf       	rjmp	.-54     	; 0x3c2 <analogWrite+0x74>
C:\Users\Madalin\AppData\Local\Arduino15\packages\MiniCore\hardware\avr\3.1.2\cores\MCUdude_corefiles/wiring_analog.c:188
      #endif

      #if defined(TCCR2A) && defined(COM2B1)
      case TIMER2B:
        // connect pwm to pin on timer 2, channel B
        TCCR2A |= _BV(COM2B1);
     3f8:	80 91 b0 00 	lds	r24, 0x00B0	; 0x8000b0 <__DATA_REGION_ORIGIN__+0x50>
     3fc:	80 62       	ori	r24, 0x20	; 32
     3fe:	80 93 b0 00 	sts	0x00B0, r24	; 0x8000b0 <__DATA_REGION_ORIGIN__+0x50>
C:\Users\Madalin\AppData\Local\Arduino15\packages\MiniCore\hardware\avr\3.1.2\cores\MCUdude_corefiles/wiring_analog.c:189
        OCR2B = val; // set pwm duty
     402:	c0 93 b4 00 	sts	0x00B4, r28	; 0x8000b4 <__DATA_REGION_ORIGIN__+0x54>
     406:	dd cf       	rjmp	.-70     	; 0x3c2 <analogWrite+0x74>

00000408 <delayMicroseconds>:
delayMicroseconds():
C:\Users\Madalin\AppData\Local\Arduino15\packages\MiniCore\hardware\avr\3.1.2\cores\MCUdude_corefiles/wiring.c:619
  us -= 7; // = 2 cycles

#elif F_CPU >= 16000000L
  // for a one-microsecond delay, simply return.  the overhead
  // of the function call takes 14 (16) cycles, which is 1 us
  if (us <= 1) return; //  = 3 cycles, (4 when true)
     408:	81 30       	cpi	r24, 0x01	; 1
     40a:	91 05       	cpc	r25, r1
     40c:	39 f0       	breq	.+14     	; 0x41c <delayMicroseconds+0x14>
C:\Users\Madalin\AppData\Local\Arduino15\packages\MiniCore\hardware\avr\3.1.2\cores\MCUdude_corefiles/wiring.c:624

  // the following loop takes 1/4 of a microsecond (4 cycles)
  // per iteration, so execute it four times for each microsecond of
  // delay requested.
  us <<= 2; // x4 us, = 4 cycles
     40e:	88 0f       	add	r24, r24
     410:	99 1f       	adc	r25, r25
     412:	88 0f       	add	r24, r24
     414:	99 1f       	adc	r25, r25
C:\Users\Madalin\AppData\Local\Arduino15\packages\MiniCore\hardware\avr\3.1.2\cores\MCUdude_corefiles/wiring.c:629

  // account for the time taken in the preceeding commands.
  // we just burned 19 (21) cycles above, remove 5, (5*4=20)
  // to 2nd us is at least 8 so we can substract 5
  us -= 5; // = 2 cycles,
     416:	05 97       	sbiw	r24, 0x05	; 5
C:\Users\Madalin\AppData\Local\Arduino15\packages\MiniCore\hardware\avr\3.1.2\cores\MCUdude_corefiles/wiring.c:929
  us >>= 2; // us div 4, = 4 cycles

#endif

  // busy wait
  __asm__ __volatile__ (
     418:	01 97       	sbiw	r24, 0x01	; 1
     41a:	f1 f7       	brne	.-4      	; 0x418 <delayMicroseconds+0x10>
C:\Users\Madalin\AppData\Local\Arduino15\packages\MiniCore\hardware\avr\3.1.2\cores\MCUdude_corefiles/wiring.c:939
    "   brne 1b"                     // 2 cycles
    : /* no outputs */
    : "w" (us)
  );
  // return = 4 cycles
}
     41c:	08 95       	ret

0000041e <micros>:
micros():
C:\Users\Madalin\AppData\Local\Arduino15\packages\MiniCore\hardware\avr\3.1.2\cores\MCUdude_corefiles/wiring.c:237
  unsigned char f; // temporary storage for millis fraction counter
  unsigned char q = 0; // record whether an overflow is flagged
#endif
  // t will be the number where the timer0 counter stopped
  uint8_t t;
  uint8_t oldSREG = SREG;
     41e:	3f b7       	in	r19, 0x3f	; 63
C:\Users\Madalin\AppData\Local\Arduino15\packages\MiniCore\hardware\avr\3.1.2\cores\MCUdude_corefiles/wiring.c:240

  // Stop all interrupts
  cli();
     420:	f8 94       	cli
C:\Users\Madalin\AppData\Local\Arduino15\packages\MiniCore\hardware\avr\3.1.2\cores\MCUdude_corefiles/wiring.c:247
#ifdef CORRECT_EXACT_MICROS
  // combine exact millisec and 8usec counters
  m = timer0_millis;
  f = timer0_fract;
#else
  m = timer0_overflow_count;
     422:	80 91 f5 02 	lds	r24, 0x02F5	; 0x8002f5 <timer0_overflow_count>
     426:	90 91 f6 02 	lds	r25, 0x02F6	; 0x8002f6 <timer0_overflow_count+0x1>
     42a:	a0 91 f7 02 	lds	r26, 0x02F7	; 0x8002f7 <timer0_overflow_count+0x2>
     42e:	b0 91 f8 02 	lds	r27, 0x02F8	; 0x8002f8 <timer0_overflow_count+0x3>
C:\Users\Madalin\AppData\Local\Arduino15\packages\MiniCore\hardware\avr\3.1.2\cores\MCUdude_corefiles/wiring.c:252
#endif

  // TCNT0 : The Timer Counter Register
#if defined(TCNT0)
  t = TCNT0;
     432:	26 b5       	in	r18, 0x26	; 38
C:\Users\Madalin\AppData\Local\Arduino15\packages\MiniCore\hardware\avr\3.1.2\cores\MCUdude_corefiles/wiring.c:261
  #error TIMER 0 not defined
#endif

  // Timer0 Interrupt Flag Register
#ifdef TIFR0
  if ((TIFR0 & _BV(TOV0)) && (t < 255))
     434:	a8 9b       	sbis	0x15, 0	; 21
     436:	05 c0       	rjmp	.+10     	; 0x442 <micros+0x24>
     438:	2f 3f       	cpi	r18, 0xFF	; 255
     43a:	19 f0       	breq	.+6      	; 0x442 <micros+0x24>
C:\Users\Madalin\AppData\Local\Arduino15\packages\MiniCore\hardware\avr\3.1.2\cores\MCUdude_corefiles/wiring.c:263
#ifndef CORRECT_EXACT_MICROS
    m++;
     43c:	01 96       	adiw	r24, 0x01	; 1
     43e:	a1 1d       	adc	r26, r1
     440:	b1 1d       	adc	r27, r1
C:\Users\Madalin\AppData\Local\Arduino15\packages\MiniCore\hardware\avr\3.1.2\cores\MCUdude_corefiles/wiring.c:276
#else
    q = 1;
#endif
#endif
  // Restore SREG
  SREG = oldSREG;
     442:	3f bf       	out	0x3f, r19	; 63
C:\Users\Madalin\AppData\Local\Arduino15\packages\MiniCore\hardware\avr\3.1.2\cores\MCUdude_corefiles/wiring.c:292
      ((t * MICROSECONDS_PER_TIMER0_OVERFLOW) >> 8);
  return q ? m + MICROSECONDS_PER_TIMER0_OVERFLOW : m;
#elif 1
  /* All power-of-two Megahertz frequencies enter here, as well as 12.8 MHz.
     We only end up here if right shift before multiplication is exact. */
  return ((m << 8) + t) * (MICROSECONDS_PER_TIMER0_OVERFLOW >> 8);
     444:	ba 2f       	mov	r27, r26
     446:	a9 2f       	mov	r26, r25
     448:	98 2f       	mov	r25, r24
     44a:	88 27       	eor	r24, r24
     44c:	bc 01       	movw	r22, r24
     44e:	cd 01       	movw	r24, r26
     450:	62 0f       	add	r22, r18
     452:	71 1d       	adc	r23, r1
     454:	81 1d       	adc	r24, r1
     456:	91 1d       	adc	r25, r1
     458:	42 e0       	ldi	r20, 0x02	; 2
     45a:	66 0f       	add	r22, r22
     45c:	77 1f       	adc	r23, r23
     45e:	88 1f       	adc	r24, r24
     460:	99 1f       	adc	r25, r25
     462:	4a 95       	dec	r20
     464:	d1 f7       	brne	.-12     	; 0x45a <micros+0x3c>
C:\Users\Madalin\AppData\Local\Arduino15\packages\MiniCore\hardware\avr\3.1.2\cores\MCUdude_corefiles/wiring.c:393
  // m & t are multiplied by 4 (since it was already multiplied by 256)
  // t is multiplied by 4
  return ((m << 8) + t) * (64 / clockCyclesPerMicrosecond());
#endif
#endif // 0
}
     466:	08 95       	ret

00000468 <delay>:
delay():
C:\Users\Madalin\AppData\Local\Arduino15\packages\MiniCore\hardware\avr\3.1.2\cores\MCUdude_corefiles/wiring.c:396

void delay(unsigned long ms)
{
     468:	8f 92       	push	r8
     46a:	9f 92       	push	r9
     46c:	af 92       	push	r10
     46e:	bf 92       	push	r11
     470:	cf 92       	push	r12
     472:	df 92       	push	r13
     474:	ef 92       	push	r14
     476:	ff 92       	push	r15
     478:	4b 01       	movw	r8, r22
     47a:	5c 01       	movw	r10, r24
C:\Users\Madalin\AppData\Local\Arduino15\packages\MiniCore\hardware\avr\3.1.2\cores\MCUdude_corefiles/wiring.c:397
  unsigned long start = micros();
     47c:	0e 94 0f 02 	call	0x41e	; 0x41e <micros>
     480:	6b 01       	movw	r12, r22
     482:	7c 01       	movw	r14, r24
C:\Users\Madalin\AppData\Local\Arduino15\packages\MiniCore\hardware\avr\3.1.2\cores\MCUdude_corefiles/wiring.c:401

  while (ms > 0UL) {
    yield();
    while (ms > 0UL && (micros() - start) >= 1000UL) {
     484:	0e 94 0f 02 	call	0x41e	; 0x41e <micros>
     488:	6c 19       	sub	r22, r12
     48a:	7d 09       	sbc	r23, r13
     48c:	8e 09       	sbc	r24, r14
     48e:	9f 09       	sbc	r25, r15
     490:	68 3e       	cpi	r22, 0xE8	; 232
     492:	73 40       	sbci	r23, 0x03	; 3
     494:	81 05       	cpc	r24, r1
     496:	91 05       	cpc	r25, r1
     498:	a8 f3       	brcs	.-22     	; 0x484 <delay+0x1c>
C:\Users\Madalin\AppData\Local\Arduino15\packages\MiniCore\hardware\avr\3.1.2\cores\MCUdude_corefiles/wiring.c:402
      ms--;
     49a:	21 e0       	ldi	r18, 0x01	; 1
     49c:	82 1a       	sub	r8, r18
     49e:	91 08       	sbc	r9, r1
     4a0:	a1 08       	sbc	r10, r1
     4a2:	b1 08       	sbc	r11, r1
C:\Users\Madalin\AppData\Local\Arduino15\packages\MiniCore\hardware\avr\3.1.2\cores\MCUdude_corefiles/wiring.c:403
      start += 1000UL;
     4a4:	88 ee       	ldi	r24, 0xE8	; 232
     4a6:	c8 0e       	add	r12, r24
     4a8:	83 e0       	ldi	r24, 0x03	; 3
     4aa:	d8 1e       	adc	r13, r24
     4ac:	e1 1c       	adc	r14, r1
     4ae:	f1 1c       	adc	r15, r1
C:\Users\Madalin\AppData\Local\Arduino15\packages\MiniCore\hardware\avr\3.1.2\cores\MCUdude_corefiles/wiring.c:401
{
  unsigned long start = micros();

  while (ms > 0UL) {
    yield();
    while (ms > 0UL && (micros() - start) >= 1000UL) {
     4b0:	81 14       	cp	r8, r1
     4b2:	91 04       	cpc	r9, r1
     4b4:	a1 04       	cpc	r10, r1
     4b6:	b1 04       	cpc	r11, r1
     4b8:	29 f7       	brne	.-54     	; 0x484 <delay+0x1c>
C:\Users\Madalin\AppData\Local\Arduino15\packages\MiniCore\hardware\avr\3.1.2\cores\MCUdude_corefiles/wiring.c:406
      ms--;
      start += 1000UL;
    }
  }
}
     4ba:	ff 90       	pop	r15
     4bc:	ef 90       	pop	r14
     4be:	df 90       	pop	r13
     4c0:	cf 90       	pop	r12
     4c2:	bf 90       	pop	r11
     4c4:	af 90       	pop	r10
     4c6:	9f 90       	pop	r9
     4c8:	8f 90       	pop	r8
     4ca:	08 95       	ret

000004cc <TwoWire::onRequestService()>:
onRequestService():
C:\Users\Madalin\AppData\Local\Arduino15\packages\MiniCore\hardware\avr\3.1.2\libraries\Wire\src/Wire.cpp:366
  // !!! this will kill any pending pre-master sendTo() activity
  txBufferIndex = 0;
  txBufferLength = 0;
  // alert user program
  user_onRequest();
}
     4cc:	08 95       	ret

000004ce <TwoWire::onReceiveService(unsigned char*, int)>:
onReceiveService():
C:\Users\Madalin\AppData\Local\Arduino15\packages\MiniCore\hardware\avr\3.1.2\libraries\Wire\src/Wire.cpp:351
  // set rx iterator vars
  rxBufferIndex = 0;
  rxBufferLength = numBytes;
  // alert user program
  user_onReceive(numBytes);
}
     4ce:	08 95       	ret

000004d0 <Print::write(unsigned char const*, unsigned int)>:
write():
C:\Users\Madalin\AppData\Local\Arduino15\packages\MiniCore\hardware\avr\3.1.2\cores\MCUdude_corefiles/Print.cpp:35

// Public Methods //////////////////////////////////////////////////////////////

/* default implementation: may be overridden */
size_t Print::write(const uint8_t *buffer, size_t size)
{
     4d0:	af 92       	push	r10
     4d2:	bf 92       	push	r11
     4d4:	cf 92       	push	r12
     4d6:	df 92       	push	r13
     4d8:	ef 92       	push	r14
     4da:	ff 92       	push	r15
     4dc:	0f 93       	push	r16
     4de:	1f 93       	push	r17
     4e0:	cf 93       	push	r28
     4e2:	df 93       	push	r29
     4e4:	6c 01       	movw	r12, r24
     4e6:	7b 01       	movw	r14, r22
     4e8:	8b 01       	movw	r16, r22
     4ea:	04 0f       	add	r16, r20
     4ec:	15 1f       	adc	r17, r21
     4ee:	eb 01       	movw	r28, r22
     4f0:	5e 01       	movw	r10, r28
     4f2:	ae 18       	sub	r10, r14
     4f4:	bf 08       	sbc	r11, r15
C:\Users\Madalin\AppData\Local\Arduino15\packages\MiniCore\hardware\avr\3.1.2\cores\MCUdude_corefiles/Print.cpp:37
  size_t n = 0;
  while (size--) {
     4f6:	c0 17       	cp	r28, r16
     4f8:	d1 07       	cpc	r29, r17
     4fa:	59 f0       	breq	.+22     	; 0x512 <Print::write(unsigned char const*, unsigned int)+0x42>
C:\Users\Madalin\AppData\Local\Arduino15\packages\MiniCore\hardware\avr\3.1.2\cores\MCUdude_corefiles/Print.cpp:38
    if (write(*buffer++)) n++;
     4fc:	69 91       	ld	r22, Y+
     4fe:	d6 01       	movw	r26, r12
     500:	ed 91       	ld	r30, X+
     502:	fc 91       	ld	r31, X
     504:	01 90       	ld	r0, Z+
     506:	f0 81       	ld	r31, Z
     508:	e0 2d       	mov	r30, r0
     50a:	c6 01       	movw	r24, r12
     50c:	09 95       	icall
     50e:	89 2b       	or	r24, r25
     510:	79 f7       	brne	.-34     	; 0x4f0 <Print::write(unsigned char const*, unsigned int)+0x20>
C:\Users\Madalin\AppData\Local\Arduino15\packages\MiniCore\hardware\avr\3.1.2\cores\MCUdude_corefiles/Print.cpp:42
    else break;
  }
  return n;
}
     512:	c5 01       	movw	r24, r10
     514:	df 91       	pop	r29
     516:	cf 91       	pop	r28
     518:	1f 91       	pop	r17
     51a:	0f 91       	pop	r16
     51c:	ff 90       	pop	r15
     51e:	ef 90       	pop	r14
     520:	df 90       	pop	r13
     522:	cf 90       	pop	r12
     524:	bf 90       	pop	r11
     526:	af 90       	pop	r10
     528:	08 95       	ret

0000052a <HardwareSerial::availableForWrite()>:
availableForWrite():
C:\Users\Madalin\AppData\Local\Arduino15\packages\MiniCore\hardware\avr\3.1.2\cores\MCUdude_corefiles/HardwareSerial.cpp:195
{
  tx_buffer_index_t head;
  tx_buffer_index_t tail;

  TX_BUFFER_ATOMIC {
    head = _tx_buffer_head;
     52a:	fc 01       	movw	r30, r24
     52c:	53 8d       	ldd	r21, Z+27	; 0x1b
C:\Users\Madalin\AppData\Local\Arduino15\packages\MiniCore\hardware\avr\3.1.2\cores\MCUdude_corefiles/HardwareSerial.cpp:196
    tail = _tx_buffer_tail;
     52e:	44 8d       	ldd	r20, Z+28	; 0x1c
     530:	25 2f       	mov	r18, r21
     532:	30 e0       	ldi	r19, 0x00	; 0
     534:	84 2f       	mov	r24, r20
     536:	90 e0       	ldi	r25, 0x00	; 0
C:\Users\Madalin\AppData\Local\Arduino15\packages\MiniCore\hardware\avr\3.1.2\cores\MCUdude_corefiles/HardwareSerial.cpp:198
  }
  if (head >= tail) return SERIAL_TX_BUFFER_SIZE - 1 - head + tail;
     538:	82 1b       	sub	r24, r18
     53a:	93 0b       	sbc	r25, r19
     53c:	54 17       	cp	r21, r20
     53e:	10 f0       	brcs	.+4      	; 0x544 <HardwareSerial::availableForWrite()+0x1a>
     540:	cf 96       	adiw	r24, 0x3f	; 63
     542:	08 95       	ret
C:\Users\Madalin\AppData\Local\Arduino15\packages\MiniCore\hardware\avr\3.1.2\cores\MCUdude_corefiles/HardwareSerial.cpp:199
  return tail - head - 1;
     544:	01 97       	sbiw	r24, 0x01	; 1
C:\Users\Madalin\AppData\Local\Arduino15\packages\MiniCore\hardware\avr\3.1.2\cores\MCUdude_corefiles/HardwareSerial.cpp:200
}
     546:	08 95       	ret

00000548 <HardwareSerial::read()>:
read():
C:\Users\Madalin\AppData\Local\Arduino15\packages\MiniCore\hardware\avr\3.1.2\cores\MCUdude_corefiles/HardwareSerial.cpp:178
    return _rx_buffer[_rx_buffer_tail];
  }
}

int HardwareSerial::read(void)
{
     548:	fc 01       	movw	r30, r24
C:\Users\Madalin\AppData\Local\Arduino15\packages\MiniCore\hardware\avr\3.1.2\cores\MCUdude_corefiles/HardwareSerial.cpp:180
  // if the head isn't ahead of the tail, we don't have any characters
  if (_rx_buffer_head == _rx_buffer_tail) {
     54a:	91 8d       	ldd	r25, Z+25	; 0x19
     54c:	82 8d       	ldd	r24, Z+26	; 0x1a
     54e:	98 17       	cp	r25, r24
     550:	61 f0       	breq	.+24     	; 0x56a <HardwareSerial::read()+0x22>
C:\Users\Madalin\AppData\Local\Arduino15\packages\MiniCore\hardware\avr\3.1.2\cores\MCUdude_corefiles/HardwareSerial.cpp:183
    return -1;
  } else {
    unsigned char c = _rx_buffer[_rx_buffer_tail];
     552:	a2 8d       	ldd	r26, Z+26	; 0x1a
     554:	ae 0f       	add	r26, r30
     556:	bf 2f       	mov	r27, r31
     558:	b1 1d       	adc	r27, r1
     55a:	5d 96       	adiw	r26, 0x1d	; 29
     55c:	8c 91       	ld	r24, X
C:\Users\Madalin\AppData\Local\Arduino15\packages\MiniCore\hardware\avr\3.1.2\cores\MCUdude_corefiles/HardwareSerial.cpp:184
    _rx_buffer_tail = (rx_buffer_index_t)(_rx_buffer_tail + 1) % SERIAL_RX_BUFFER_SIZE;
     55e:	92 8d       	ldd	r25, Z+26	; 0x1a
     560:	9f 5f       	subi	r25, 0xFF	; 255
     562:	9f 73       	andi	r25, 0x3F	; 63
     564:	92 8f       	std	Z+26, r25	; 0x1a
C:\Users\Madalin\AppData\Local\Arduino15\packages\MiniCore\hardware\avr\3.1.2\cores\MCUdude_corefiles/HardwareSerial.cpp:185
    return c;
     566:	90 e0       	ldi	r25, 0x00	; 0
     568:	08 95       	ret
C:\Users\Madalin\AppData\Local\Arduino15\packages\MiniCore\hardware\avr\3.1.2\cores\MCUdude_corefiles/HardwareSerial.cpp:181

int HardwareSerial::read(void)
{
  // if the head isn't ahead of the tail, we don't have any characters
  if (_rx_buffer_head == _rx_buffer_tail) {
    return -1;
     56a:	8f ef       	ldi	r24, 0xFF	; 255
     56c:	9f ef       	ldi	r25, 0xFF	; 255
C:\Users\Madalin\AppData\Local\Arduino15\packages\MiniCore\hardware\avr\3.1.2\cores\MCUdude_corefiles/HardwareSerial.cpp:187
  } else {
    unsigned char c = _rx_buffer[_rx_buffer_tail];
    _rx_buffer_tail = (rx_buffer_index_t)(_rx_buffer_tail + 1) % SERIAL_RX_BUFFER_SIZE;
    return c;
  }
}
     56e:	08 95       	ret

00000570 <HardwareSerial::peek()>:
peek():
C:\Users\Madalin\AppData\Local\Arduino15\packages\MiniCore\hardware\avr\3.1.2\cores\MCUdude_corefiles/HardwareSerial.cpp:169
{
  return ((unsigned int)(SERIAL_RX_BUFFER_SIZE + _rx_buffer_head - _rx_buffer_tail)) % SERIAL_RX_BUFFER_SIZE;
}

int HardwareSerial::peek(void)
{
     570:	fc 01       	movw	r30, r24
C:\Users\Madalin\AppData\Local\Arduino15\packages\MiniCore\hardware\avr\3.1.2\cores\MCUdude_corefiles/HardwareSerial.cpp:170
  if (_rx_buffer_head == _rx_buffer_tail) {
     572:	91 8d       	ldd	r25, Z+25	; 0x19
     574:	82 8d       	ldd	r24, Z+26	; 0x1a
     576:	98 17       	cp	r25, r24
     578:	31 f0       	breq	.+12     	; 0x586 <HardwareSerial::peek()+0x16>
C:\Users\Madalin\AppData\Local\Arduino15\packages\MiniCore\hardware\avr\3.1.2\cores\MCUdude_corefiles/HardwareSerial.cpp:173
    return -1;
  } else {
    return _rx_buffer[_rx_buffer_tail];
     57a:	82 8d       	ldd	r24, Z+26	; 0x1a
     57c:	e8 0f       	add	r30, r24
     57e:	f1 1d       	adc	r31, r1
     580:	85 8d       	ldd	r24, Z+29	; 0x1d
     582:	90 e0       	ldi	r25, 0x00	; 0
     584:	08 95       	ret
C:\Users\Madalin\AppData\Local\Arduino15\packages\MiniCore\hardware\avr\3.1.2\cores\MCUdude_corefiles/HardwareSerial.cpp:171
}

int HardwareSerial::peek(void)
{
  if (_rx_buffer_head == _rx_buffer_tail) {
    return -1;
     586:	8f ef       	ldi	r24, 0xFF	; 255
     588:	9f ef       	ldi	r25, 0xFF	; 255
C:\Users\Madalin\AppData\Local\Arduino15\packages\MiniCore\hardware\avr\3.1.2\cores\MCUdude_corefiles/HardwareSerial.cpp:175
  } else {
    return _rx_buffer[_rx_buffer_tail];
  }
}
     58a:	08 95       	ret

0000058c <HardwareSerial::available()>:
available():
C:\Users\Madalin\AppData\Local\Arduino15\packages\MiniCore\hardware\avr\3.1.2\cores\MCUdude_corefiles/HardwareSerial.cpp:164
  // clear any received data
  _rx_buffer_head = _rx_buffer_tail;
}

int HardwareSerial::available(void)
{
     58c:	fc 01       	movw	r30, r24
C:\Users\Madalin\AppData\Local\Arduino15\packages\MiniCore\hardware\avr\3.1.2\cores\MCUdude_corefiles/HardwareSerial.cpp:165
  return ((unsigned int)(SERIAL_RX_BUFFER_SIZE + _rx_buffer_head - _rx_buffer_tail)) % SERIAL_RX_BUFFER_SIZE;
     58e:	91 8d       	ldd	r25, Z+25	; 0x19
     590:	22 8d       	ldd	r18, Z+26	; 0x1a
     592:	89 2f       	mov	r24, r25
     594:	90 e0       	ldi	r25, 0x00	; 0
     596:	80 5c       	subi	r24, 0xC0	; 192
     598:	9f 4f       	sbci	r25, 0xFF	; 255
     59a:	82 1b       	sub	r24, r18
     59c:	91 09       	sbc	r25, r1
C:\Users\Madalin\AppData\Local\Arduino15\packages\MiniCore\hardware\avr\3.1.2\cores\MCUdude_corefiles/HardwareSerial.cpp:166
}
     59e:	8f 73       	andi	r24, 0x3F	; 63
     5a0:	99 27       	eor	r25, r25
     5a2:	08 95       	ret

000005a4 <Serial0_available()>:
Serial0_available():
C:\Users\Madalin\AppData\Local\Arduino15\packages\MiniCore\hardware\avr\3.1.2\cores\MCUdude_corefiles/HardwareSerial0.cpp:76
#endif

// Function that can be weakly referenced by serialEventRun to prevent
// pulling in this file if it's not otherwise used.
bool Serial0_available() {
  return Serial.available();
     5a4:	89 ef       	ldi	r24, 0xF9	; 249
     5a6:	92 e0       	ldi	r25, 0x02	; 2
     5a8:	0e 94 c6 02 	call	0x58c	; 0x58c <HardwareSerial::available()>
     5ac:	21 e0       	ldi	r18, 0x01	; 1
     5ae:	89 2b       	or	r24, r25
     5b0:	09 f4       	brne	.+2      	; 0x5b4 <Serial0_available()+0x10>
     5b2:	20 e0       	ldi	r18, 0x00	; 0
C:\Users\Madalin\AppData\Local\Arduino15\packages\MiniCore\hardware\avr\3.1.2\cores\MCUdude_corefiles/HardwareSerial0.cpp:77
}
     5b4:	82 2f       	mov	r24, r18
     5b6:	08 95       	ret

000005b8 <serialEventRun()>:
serialEventRun():
C:\Users\Madalin\AppData\Local\Arduino15\packages\MiniCore\hardware\avr\3.1.2\cores\MCUdude_corefiles/HardwareSerial.cpp:67
#endif

void serialEventRun(void)
{
#if defined(HAVE_HWSERIAL0)
  if (Serial0_available && serialEvent && Serial0_available()) serialEvent();
     5b8:	80 e0       	ldi	r24, 0x00	; 0
     5ba:	90 e0       	ldi	r25, 0x00	; 0
     5bc:	89 2b       	or	r24, r25
     5be:	29 f0       	breq	.+10     	; 0x5ca <serialEventRun()+0x12>
     5c0:	0e 94 d2 02 	call	0x5a4	; 0x5a4 <Serial0_available()>
     5c4:	81 11       	cpse	r24, r1
     5c6:	0c 94 00 00 	jmp	0	; 0x0 <__vectors>
C:\Users\Madalin\AppData\Local\Arduino15\packages\MiniCore\hardware\avr\3.1.2\cores\MCUdude_corefiles/HardwareSerial.cpp:78
  if (Serial2_available && serialEvent2 && Serial2_available()) serialEvent2();
#endif
#if defined(HAVE_HWSERIAL3)
  if (Serial3_available && serialEvent3 && Serial3_available()) serialEvent3();
#endif
}
     5ca:	08 95       	ret

000005cc <HardwareSerial::_tx_udr_empty_irq()>:
_tx_udr_empty_irq():
C:\Users\Madalin\AppData\Local\Arduino15\packages\MiniCore\hardware\avr\3.1.2\cores\MCUdude_corefiles/HardwareSerial.cpp:90
#endif

// Actual interrupt handlers //////////////////////////////////////////////////////////////

void HardwareSerial::_tx_udr_empty_irq(void)
{
     5cc:	fc 01       	movw	r30, r24
C:\Users\Madalin\AppData\Local\Arduino15\packages\MiniCore\hardware\avr\3.1.2\cores\MCUdude_corefiles/HardwareSerial.cpp:93
  // If interrupts are enabled, there must be more data in the output
  // buffer. Send the next byte
  unsigned char c = _tx_buffer[_tx_buffer_tail];
     5ce:	a4 8d       	ldd	r26, Z+28	; 0x1c
     5d0:	a8 0f       	add	r26, r24
     5d2:	b9 2f       	mov	r27, r25
     5d4:	b1 1d       	adc	r27, r1
     5d6:	a3 5a       	subi	r26, 0xA3	; 163
     5d8:	bf 4f       	sbci	r27, 0xFF	; 255
     5da:	2c 91       	ld	r18, X
C:\Users\Madalin\AppData\Local\Arduino15\packages\MiniCore\hardware\avr\3.1.2\cores\MCUdude_corefiles/HardwareSerial.cpp:94
  _tx_buffer_tail = (_tx_buffer_tail + 1) % SERIAL_TX_BUFFER_SIZE;
     5dc:	84 8d       	ldd	r24, Z+28	; 0x1c
     5de:	90 e0       	ldi	r25, 0x00	; 0
     5e0:	01 96       	adiw	r24, 0x01	; 1
     5e2:	8f 73       	andi	r24, 0x3F	; 63
     5e4:	99 27       	eor	r25, r25
     5e6:	84 8f       	std	Z+28, r24	; 0x1c
C:\Users\Madalin\AppData\Local\Arduino15\packages\MiniCore\hardware\avr\3.1.2\cores\MCUdude_corefiles/HardwareSerial.cpp:96

  *_udr = c;
     5e8:	a6 89       	ldd	r26, Z+22	; 0x16
     5ea:	b7 89       	ldd	r27, Z+23	; 0x17
     5ec:	2c 93       	st	X, r18
C:\Users\Madalin\AppData\Local\Arduino15\packages\MiniCore\hardware\avr\3.1.2\cores\MCUdude_corefiles/HardwareSerial.cpp:104
  // location". This makes sure flush() won't return until the bytes
  // actually got written. Other r/w bits are preserved, and zeroes
  // written to the rest.

  #ifdef MPCM0
    *_ucsra = ((*_ucsra) & ((1 << U2X0) | (1 << MPCM0))) | (1 << TXC0);
     5ee:	a0 89       	ldd	r26, Z+16	; 0x10
     5f0:	b1 89       	ldd	r27, Z+17	; 0x11
     5f2:	8c 91       	ld	r24, X
     5f4:	83 70       	andi	r24, 0x03	; 3
     5f6:	80 64       	ori	r24, 0x40	; 64
     5f8:	8c 93       	st	X, r24
C:\Users\Madalin\AppData\Local\Arduino15\packages\MiniCore\hardware\avr\3.1.2\cores\MCUdude_corefiles/HardwareSerial.cpp:109
  #else
    *_ucsra = ((*_ucsra) & ((1 << U2X0) | (1 << TXC0)));
  #endif

  if (_tx_buffer_head == _tx_buffer_tail) {
     5fa:	93 8d       	ldd	r25, Z+27	; 0x1b
     5fc:	84 8d       	ldd	r24, Z+28	; 0x1c
     5fe:	98 13       	cpse	r25, r24
     600:	06 c0       	rjmp	.+12     	; 0x60e <HardwareSerial::_tx_udr_empty_irq()+0x42>
C:\Users\Madalin\AppData\Local\Arduino15\packages\MiniCore\hardware\avr\3.1.2\cores\MCUdude_corefiles/HardwareSerial.cpp:111
    // Buffer empty, so disable interrupts
    *_ucsrb &= ~_BV(UDRIE0);
     602:	02 88       	ldd	r0, Z+18	; 0x12
     604:	f3 89       	ldd	r31, Z+19	; 0x13
     606:	e0 2d       	mov	r30, r0
     608:	80 81       	ld	r24, Z
     60a:	8f 7d       	andi	r24, 0xDF	; 223
     60c:	80 83       	st	Z, r24
C:\Users\Madalin\AppData\Local\Arduino15\packages\MiniCore\hardware\avr\3.1.2\cores\MCUdude_corefiles/HardwareSerial.cpp:113
  }
}
     60e:	08 95       	ret

00000610 <HardwareSerial::write(unsigned char)>:
write():
C:\Users\Madalin\AppData\Local\Arduino15\packages\MiniCore\hardware\avr\3.1.2\cores\MCUdude_corefiles/HardwareSerial.cpp:223
  // If we get here, nothing is queued anymore (DRIE is disabled) and
  // the hardware finished tranmission (TXC is set).
}

size_t HardwareSerial::write(uint8_t c)
{
     610:	ef 92       	push	r14
     612:	ff 92       	push	r15
     614:	0f 93       	push	r16
     616:	1f 93       	push	r17
     618:	cf 93       	push	r28
     61a:	df 93       	push	r29
     61c:	ec 01       	movw	r28, r24
C:\Users\Madalin\AppData\Local\Arduino15\packages\MiniCore\hardware\avr\3.1.2\cores\MCUdude_corefiles/HardwareSerial.cpp:224
  _written = true;
     61e:	81 e0       	ldi	r24, 0x01	; 1
     620:	88 8f       	std	Y+24, r24	; 0x18
C:\Users\Madalin\AppData\Local\Arduino15\packages\MiniCore\hardware\avr\3.1.2\cores\MCUdude_corefiles/HardwareSerial.cpp:229
  // If the buffer and the data register is empty, just write the byte
  // to the data register and be done. This shortcut helps
  // significantly improve the effective datarate at high (>
  // 500kbit/s) bitrates, where interrupt overhead becomes a slowdown.
  if (_tx_buffer_head == _tx_buffer_tail && bit_is_set(*_ucsra, UDRE0)) {
     622:	9b 8d       	ldd	r25, Y+27	; 0x1b
     624:	8c 8d       	ldd	r24, Y+28	; 0x1c
     626:	98 13       	cpse	r25, r24
     628:	1a c0       	rjmp	.+52     	; 0x65e <HardwareSerial::write(unsigned char)+0x4e>
     62a:	e8 89       	ldd	r30, Y+16	; 0x10
     62c:	f9 89       	ldd	r31, Y+17	; 0x11
     62e:	80 81       	ld	r24, Z
     630:	85 ff       	sbrs	r24, 5
     632:	15 c0       	rjmp	.+42     	; 0x65e <HardwareSerial::write(unsigned char)+0x4e>
C:\Users\Madalin\AppData\Local\Arduino15\packages\MiniCore\hardware\avr\3.1.2\cores\MCUdude_corefiles/HardwareSerial.cpp:238
    // So writing UDR must happen first.
    // Writing UDR and clearing TC must be done atomically, otherwise
    // interrupts might delay the TXC clear so the byte written to UDR
    // is transmitted (setting TXC) before clearing TXC. Then TXC will
    // be cleared when no bytes are left, causing flush() to hang
    ATOMIC_BLOCK(ATOMIC_RESTORESTATE) {
     634:	9f b7       	in	r25, 0x3f	; 63
__iCliRetVal():
c:\users\madalin\appdata\local\arduino15\packages\arduino\tools\avr-gcc\7.3.0-atmel3.6.1-arduino7\avr\include\util/atomic.h:50
    return 1;
}

static __inline__ uint8_t __iCliRetVal(void)
{
    cli();
     636:	f8 94       	cli
write():
C:\Users\Madalin\AppData\Local\Arduino15\packages\MiniCore\hardware\avr\3.1.2\cores\MCUdude_corefiles/HardwareSerial.cpp:239
      *_udr = c;
     638:	ee 89       	ldd	r30, Y+22	; 0x16
     63a:	ff 89       	ldd	r31, Y+23	; 0x17
     63c:	60 83       	st	Z, r22
C:\Users\Madalin\AppData\Local\Arduino15\packages\MiniCore\hardware\avr\3.1.2\cores\MCUdude_corefiles/HardwareSerial.cpp:241
      #ifdef MPCM0
        *_ucsra = ((*_ucsra) & ((1 << U2X0) | (1 << MPCM0))) | (1 << TXC0);
     63e:	e8 89       	ldd	r30, Y+16	; 0x10
     640:	f9 89       	ldd	r31, Y+17	; 0x11
     642:	80 81       	ld	r24, Z
     644:	83 70       	andi	r24, 0x03	; 3
     646:	80 64       	ori	r24, 0x40	; 64
C:\Users\Madalin\AppData\Local\Arduino15\packages\MiniCore\hardware\avr\3.1.2\cores\MCUdude_corefiles/HardwareSerial.cpp:271
  // make atomic to prevent execution of ISR between setting the
  // head pointer and setting the interrupt flag resulting in buffer
  // retransmission
  ATOMIC_BLOCK(ATOMIC_RESTORESTATE) {
    _tx_buffer_head = i;
    *_ucsrb |= _BV(UDRIE0);
     648:	80 83       	st	Z, r24
__iRestore():
c:\users\madalin\appdata\local\arduino15\packages\arduino\tools\avr-gcc\7.3.0-atmel3.6.1-arduino7\avr\include\util/atomic.h:70
    (void)__s;
}

static __inline__ void __iRestore(const  uint8_t *__s)
{
    SREG = *__s;
     64a:	9f bf       	out	0x3f, r25	; 63
write():
C:\Users\Madalin\AppData\Local\Arduino15\packages\MiniCore\hardware\avr\3.1.2\cores\MCUdude_corefiles/HardwareSerial.cpp:275
  }
  
  return 1;
}
     64c:	81 e0       	ldi	r24, 0x01	; 1
     64e:	90 e0       	ldi	r25, 0x00	; 0
     650:	df 91       	pop	r29
     652:	cf 91       	pop	r28
     654:	1f 91       	pop	r17
     656:	0f 91       	pop	r16
     658:	ff 90       	pop	r15
     65a:	ef 90       	pop	r14
     65c:	08 95       	ret
     65e:	f6 2e       	mov	r15, r22
C:\Users\Madalin\AppData\Local\Arduino15\packages\MiniCore\hardware\avr\3.1.2\cores\MCUdude_corefiles/HardwareSerial.cpp:248
        *_ucsra = ((*_ucsra) & ((1 << U2X0) | (1 << TXC0)));
      #endif
    }
    return 1;
  }
  tx_buffer_index_t i = (_tx_buffer_head + 1) % SERIAL_TX_BUFFER_SIZE;
     660:	0b 8d       	ldd	r16, Y+27	; 0x1b
     662:	10 e0       	ldi	r17, 0x00	; 0
     664:	0f 5f       	subi	r16, 0xFF	; 255
     666:	1f 4f       	sbci	r17, 0xFF	; 255
     668:	0f 73       	andi	r16, 0x3F	; 63
     66a:	11 27       	eor	r17, r17
     66c:	e0 2e       	mov	r14, r16
C:\Users\Madalin\AppData\Local\Arduino15\packages\MiniCore\hardware\avr\3.1.2\cores\MCUdude_corefiles/HardwareSerial.cpp:252

  // If the output buffer is full, there's nothing for it other than to 
  // wait for the interrupt handler to empty it a bit
  while (i == _tx_buffer_tail) {
     66e:	8c 8d       	ldd	r24, Y+28	; 0x1c
     670:	8e 11       	cpse	r24, r14
     672:	0c c0       	rjmp	.+24     	; 0x68c <HardwareSerial::write(unsigned char)+0x7c>
C:\Users\Madalin\AppData\Local\Arduino15\packages\MiniCore\hardware\avr\3.1.2\cores\MCUdude_corefiles/HardwareSerial.cpp:253
    if (bit_is_clear(SREG, SREG_I)) {
     674:	0f b6       	in	r0, 0x3f	; 63
     676:	07 fc       	sbrc	r0, 7
     678:	fa cf       	rjmp	.-12     	; 0x66e <HardwareSerial::write(unsigned char)+0x5e>
C:\Users\Madalin\AppData\Local\Arduino15\packages\MiniCore\hardware\avr\3.1.2\cores\MCUdude_corefiles/HardwareSerial.cpp:258
      // Interrupts are disabled, so we'll have to poll the data
      // register empty flag ourselves. If it is set, pretend an
      // interrupt has happened and call the handler to free up
      // space for us.
      if(bit_is_set(*_ucsra, UDRE0))
     67a:	e8 89       	ldd	r30, Y+16	; 0x10
     67c:	f9 89       	ldd	r31, Y+17	; 0x11
     67e:	80 81       	ld	r24, Z
     680:	85 ff       	sbrs	r24, 5
     682:	f5 cf       	rjmp	.-22     	; 0x66e <HardwareSerial::write(unsigned char)+0x5e>
C:\Users\Madalin\AppData\Local\Arduino15\packages\MiniCore\hardware\avr\3.1.2\cores\MCUdude_corefiles/HardwareSerial.cpp:259
        _tx_udr_empty_irq();
     684:	ce 01       	movw	r24, r28
     686:	0e 94 e6 02 	call	0x5cc	; 0x5cc <HardwareSerial::_tx_udr_empty_irq()>
     68a:	f1 cf       	rjmp	.-30     	; 0x66e <HardwareSerial::write(unsigned char)+0x5e>
C:\Users\Madalin\AppData\Local\Arduino15\packages\MiniCore\hardware\avr\3.1.2\cores\MCUdude_corefiles/HardwareSerial.cpp:265
    } else {
      // nop, the interrupt handler will free up space for us
    }
  }

  _tx_buffer[_tx_buffer_head] = c;
     68c:	eb 8d       	ldd	r30, Y+27	; 0x1b
     68e:	ec 0f       	add	r30, r28
     690:	fd 2f       	mov	r31, r29
     692:	f1 1d       	adc	r31, r1
     694:	e3 5a       	subi	r30, 0xA3	; 163
     696:	ff 4f       	sbci	r31, 0xFF	; 255
     698:	f0 82       	st	Z, r15
C:\Users\Madalin\AppData\Local\Arduino15\packages\MiniCore\hardware\avr\3.1.2\cores\MCUdude_corefiles/HardwareSerial.cpp:269
  // make atomic to prevent execution of ISR between setting the
  // head pointer and setting the interrupt flag resulting in buffer
  // retransmission
  ATOMIC_BLOCK(ATOMIC_RESTORESTATE) {
     69a:	9f b7       	in	r25, 0x3f	; 63
__iCliRetVal():
c:\users\madalin\appdata\local\arduino15\packages\arduino\tools\avr-gcc\7.3.0-atmel3.6.1-arduino7\avr\include\util/atomic.h:50
    return 1;
}

static __inline__ uint8_t __iCliRetVal(void)
{
    cli();
     69c:	f8 94       	cli
write():
C:\Users\Madalin\AppData\Local\Arduino15\packages\MiniCore\hardware\avr\3.1.2\cores\MCUdude_corefiles/HardwareSerial.cpp:270
    _tx_buffer_head = i;
     69e:	0b 8f       	std	Y+27, r16	; 0x1b
C:\Users\Madalin\AppData\Local\Arduino15\packages\MiniCore\hardware\avr\3.1.2\cores\MCUdude_corefiles/HardwareSerial.cpp:271
    *_ucsrb |= _BV(UDRIE0);
     6a0:	ea 89       	ldd	r30, Y+18	; 0x12
     6a2:	fb 89       	ldd	r31, Y+19	; 0x13
     6a4:	80 81       	ld	r24, Z
     6a6:	80 62       	ori	r24, 0x20	; 32
     6a8:	cf cf       	rjmp	.-98     	; 0x648 <HardwareSerial::write(unsigned char)+0x38>

000006aa <HardwareSerial::flush()>:
flush():
C:\Users\Madalin\AppData\Local\Arduino15\packages\MiniCore\hardware\avr\3.1.2\cores\MCUdude_corefiles/HardwareSerial.cpp:203
  if (head >= tail) return SERIAL_TX_BUFFER_SIZE - 1 - head + tail;
  return tail - head - 1;
}

void HardwareSerial::flush()
{
     6aa:	cf 93       	push	r28
     6ac:	df 93       	push	r29
     6ae:	ec 01       	movw	r28, r24
C:\Users\Madalin\AppData\Local\Arduino15\packages\MiniCore\hardware\avr\3.1.2\cores\MCUdude_corefiles/HardwareSerial.cpp:207
  // If we have never written a byte, no need to flush. This special
  // case is needed since there is no way to force the TXC (transmit
  // complete) bit to 1 during initialization
  if (!_written)
     6b0:	88 8d       	ldd	r24, Y+24	; 0x18
     6b2:	88 23       	and	r24, r24
     6b4:	b9 f0       	breq	.+46     	; 0x6e4 <HardwareSerial::flush()+0x3a>
C:\Users\Madalin\AppData\Local\Arduino15\packages\MiniCore\hardware\avr\3.1.2\cores\MCUdude_corefiles/HardwareSerial.cpp:210
    return;

  while (bit_is_set(*_ucsrb, UDRIE0) || bit_is_clear(*_ucsra, TXC0)) {
     6b6:	aa 89       	ldd	r26, Y+18	; 0x12
     6b8:	bb 89       	ldd	r27, Y+19	; 0x13
     6ba:	e8 89       	ldd	r30, Y+16	; 0x10
     6bc:	f9 89       	ldd	r31, Y+17	; 0x11
     6be:	8c 91       	ld	r24, X
     6c0:	85 fd       	sbrc	r24, 5
     6c2:	03 c0       	rjmp	.+6      	; 0x6ca <HardwareSerial::flush()+0x20>
     6c4:	80 81       	ld	r24, Z
     6c6:	86 fd       	sbrc	r24, 6
     6c8:	0d c0       	rjmp	.+26     	; 0x6e4 <HardwareSerial::flush()+0x3a>
C:\Users\Madalin\AppData\Local\Arduino15\packages\MiniCore\hardware\avr\3.1.2\cores\MCUdude_corefiles/HardwareSerial.cpp:211
    if (bit_is_clear(SREG, SREG_I) && bit_is_set(*_ucsrb, UDRIE0))
     6ca:	0f b6       	in	r0, 0x3f	; 63
     6cc:	07 fc       	sbrc	r0, 7
     6ce:	f7 cf       	rjmp	.-18     	; 0x6be <HardwareSerial::flush()+0x14>
     6d0:	8c 91       	ld	r24, X
     6d2:	85 ff       	sbrs	r24, 5
     6d4:	f2 cf       	rjmp	.-28     	; 0x6ba <HardwareSerial::flush()+0x10>
C:\Users\Madalin\AppData\Local\Arduino15\packages\MiniCore\hardware\avr\3.1.2\cores\MCUdude_corefiles/HardwareSerial.cpp:215
      // Interrupts are globally disabled, but the DR empty
      // interrupt should be enabled, so poll the DR empty flag to
      // prevent deadlock
      if (bit_is_set(*_ucsra, UDRE0))
     6d6:	80 81       	ld	r24, Z
     6d8:	85 ff       	sbrs	r24, 5
     6da:	ed cf       	rjmp	.-38     	; 0x6b6 <HardwareSerial::flush()+0xc>
C:\Users\Madalin\AppData\Local\Arduino15\packages\MiniCore\hardware\avr\3.1.2\cores\MCUdude_corefiles/HardwareSerial.cpp:216
        _tx_udr_empty_irq();
     6dc:	ce 01       	movw	r24, r28
     6de:	0e 94 e6 02 	call	0x5cc	; 0x5cc <HardwareSerial::_tx_udr_empty_irq()>
     6e2:	e9 cf       	rjmp	.-46     	; 0x6b6 <HardwareSerial::flush()+0xc>
C:\Users\Madalin\AppData\Local\Arduino15\packages\MiniCore\hardware\avr\3.1.2\cores\MCUdude_corefiles/HardwareSerial.cpp:220
  }
  // If we get here, nothing is queued anymore (DRIE is disabled) and
  // the hardware finished tranmission (TXC is set).
}
     6e4:	df 91       	pop	r29
     6e6:	cf 91       	pop	r28
     6e8:	08 95       	ret

000006ea <Print::flush()>:
C:\Users\Madalin\AppData\Local\Arduino15\packages\MiniCore\hardware\avr\3.1.2\cores\MCUdude_corefiles/Print.h:65

    // default to zero, meaning "a single write may block"
    // should be overriden by subclasses with buffering
    virtual int availableForWrite() { return 0; }

    virtual void flush() { /* Empty implementation for backward compatibility */ }
     6ea:	08 95       	ret

000006ec <twi_stop>:
twi_stop():
C:\Users\Madalin\AppData\Local\Arduino15\packages\MiniCore\hardware\avr\3.1.2\libraries\Wire\src\utility/twi.c:436
 * Output   none
 */
void twi_stop(void)
{
  // send stop condition
  TWCR = _BV(TWEN) | _BV(TWIE) | _BV(TWEA) | _BV(TWINT) | _BV(TWSTO);
     6ec:	85 ed       	ldi	r24, 0xD5	; 213
     6ee:	80 93 bc 00 	sts	0x00BC, r24	; 0x8000bc <__DATA_REGION_ORIGIN__+0x5c>
C:\Users\Madalin\AppData\Local\Arduino15\packages\MiniCore\hardware\avr\3.1.2\libraries\Wire\src\utility/twi.c:456
          return;
        }
      }
    }
  #else
    while(TWCR & _BV(TWSTO)){
     6f2:	80 91 bc 00 	lds	r24, 0x00BC	; 0x8000bc <__DATA_REGION_ORIGIN__+0x5c>
     6f6:	84 fd       	sbrc	r24, 4
     6f8:	fc cf       	rjmp	.-8      	; 0x6f2 <twi_stop+0x6>
C:\Users\Madalin\AppData\Local\Arduino15\packages\MiniCore\hardware\avr\3.1.2\libraries\Wire\src\utility/twi.c:462
      continue;
    }
  #endif

  // update twi state
  twi_state = TWI_READY;
     6fa:	10 92 da 02 	sts	0x02DA, r1	; 0x8002da <twi_state>
C:\Users\Madalin\AppData\Local\Arduino15\packages\MiniCore\hardware\avr\3.1.2\libraries\Wire\src\utility/twi.c:463
}
     6fe:	08 95       	ret

00000700 <twi_transmit>:
twi_transmit():
C:\Users\Madalin\AppData\Local\Arduino15\packages\MiniCore\hardware\avr\3.1.2\libraries\Wire\src\utility/twi.c:371
uint8_t twi_transmit(const uint8_t* data, uint8_t length)
{
  uint8_t i;

  // ensure data will fit into buffer
  if(TWI_BUFFER_SIZE < (twi_txBufferLength+length)){
     700:	20 91 88 02 	lds	r18, 0x0288	; 0x800288 <twi_txBufferLength>
     704:	26 0f       	add	r18, r22
     706:	33 27       	eor	r19, r19
     708:	33 1f       	adc	r19, r19
     70a:	21 32       	cpi	r18, 0x21	; 33
     70c:	31 05       	cpc	r19, r1
     70e:	ec f4       	brge	.+58     	; 0x74a <twi_transmit+0x4a>
C:\Users\Madalin\AppData\Local\Arduino15\packages\MiniCore\hardware\avr\3.1.2\libraries\Wire\src\utility/twi.c:376
    return 1;
  }

  // ensure we are currently a slave transmitter
  if(TWI_STX != twi_state){
     710:	20 91 da 02 	lds	r18, 0x02DA	; 0x8002da <twi_state>
     714:	fc 01       	movw	r30, r24
     716:	90 e0       	ldi	r25, 0x00	; 0
     718:	80 e0       	ldi	r24, 0x00	; 0
     71a:	24 30       	cpi	r18, 0x04	; 4
     71c:	69 f0       	breq	.+26     	; 0x738 <twi_transmit+0x38>
C:\Users\Madalin\AppData\Local\Arduino15\packages\MiniCore\hardware\avr\3.1.2\libraries\Wire\src\utility/twi.c:377
    return 2;
     71e:	82 e0       	ldi	r24, 0x02	; 2
C:\Users\Madalin\AppData\Local\Arduino15\packages\MiniCore\hardware\avr\3.1.2\libraries\Wire\src\utility/twi.c:387
    twi_txBuffer[twi_txBufferLength+i] = data[i];
  }
  twi_txBufferLength += length;

  return 0;
}
     720:	08 95       	ret
C:\Users\Madalin\AppData\Local\Arduino15\packages\MiniCore\hardware\avr\3.1.2\libraries\Wire\src\utility/twi.c:382
    return 2;
  }

  // set length and copy data into tx buffer
  for(i = 0; i < length; ++i){
    twi_txBuffer[twi_txBufferLength+i] = data[i];
     722:	a0 91 88 02 	lds	r26, 0x0288	; 0x800288 <twi_txBufferLength>
     726:	21 91       	ld	r18, Z+
     728:	ac 01       	movw	r20, r24
     72a:	48 59       	subi	r20, 0x98	; 152
     72c:	5d 4f       	sbci	r21, 0xFD	; 253
     72e:	a4 0f       	add	r26, r20
     730:	b5 2f       	mov	r27, r21
     732:	b1 1d       	adc	r27, r1
     734:	2c 93       	st	X, r18
     736:	01 96       	adiw	r24, 0x01	; 1
C:\Users\Madalin\AppData\Local\Arduino15\packages\MiniCore\hardware\avr\3.1.2\libraries\Wire\src\utility/twi.c:381
  if(TWI_STX != twi_state){
    return 2;
  }

  // set length and copy data into tx buffer
  for(i = 0; i < length; ++i){
     738:	86 17       	cp	r24, r22
     73a:	98 f3       	brcs	.-26     	; 0x722 <twi_transmit+0x22>
C:\Users\Madalin\AppData\Local\Arduino15\packages\MiniCore\hardware\avr\3.1.2\libraries\Wire\src\utility/twi.c:384
    twi_txBuffer[twi_txBufferLength+i] = data[i];
  }
  twi_txBufferLength += length;
     73c:	80 91 88 02 	lds	r24, 0x0288	; 0x800288 <twi_txBufferLength>
     740:	68 0f       	add	r22, r24
     742:	60 93 88 02 	sts	0x0288, r22	; 0x800288 <twi_txBufferLength>
     746:	80 e0       	ldi	r24, 0x00	; 0
     748:	08 95       	ret
C:\Users\Madalin\AppData\Local\Arduino15\packages\MiniCore\hardware\avr\3.1.2\libraries\Wire\src\utility/twi.c:372
{
  uint8_t i;

  // ensure data will fit into buffer
  if(TWI_BUFFER_SIZE < (twi_txBufferLength+length)){
    return 1;
     74a:	81 e0       	ldi	r24, 0x01	; 1
     74c:	08 95       	ret

0000074e <TwoWire::flush()>:
flush():
C:\Users\Madalin\AppData\Local\Arduino15\packages\MiniCore\hardware\avr\3.1.2\libraries\Wire\src/Wire.cpp:326
}

void TwoWire::flush(void)
{
  // XXX: to be implemented.
}
     74e:	08 95       	ret

00000750 <TwoWire::peek()>:
peek():
C:\Users\Madalin\AppData\Local\Arduino15\packages\MiniCore\hardware\avr\3.1.2\libraries\Wire\src/Wire.cpp:316
// or after requestFrom(address, numBytes)
int TwoWire::peek(void)
{
  int value = -1;

  if(rxBufferIndex < rxBufferLength){
     750:	e0 91 de 02 	lds	r30, 0x02DE	; 0x8002de <TwoWire::rxBufferIndex>
     754:	80 91 dd 02 	lds	r24, 0x02DD	; 0x8002dd <TwoWire::rxBufferLength>
     758:	e8 17       	cp	r30, r24
     75a:	30 f4       	brcc	.+12     	; 0x768 <TwoWire::peek()+0x18>
C:\Users\Madalin\AppData\Local\Arduino15\packages\MiniCore\hardware\avr\3.1.2\libraries\Wire\src/Wire.cpp:317
    value = rxBuffer[rxBufferIndex];
     75c:	f0 e0       	ldi	r31, 0x00	; 0
     75e:	e8 5b       	subi	r30, 0xB8	; 184
     760:	fd 4f       	sbci	r31, 0xFD	; 253
     762:	80 81       	ld	r24, Z
     764:	90 e0       	ldi	r25, 0x00	; 0
     766:	08 95       	ret
C:\Users\Madalin\AppData\Local\Arduino15\packages\MiniCore\hardware\avr\3.1.2\libraries\Wire\src/Wire.cpp:314
// must be called in:
// slave rx event callback
// or after requestFrom(address, numBytes)
int TwoWire::peek(void)
{
  int value = -1;
     768:	8f ef       	ldi	r24, 0xFF	; 255
     76a:	9f ef       	ldi	r25, 0xFF	; 255
C:\Users\Madalin\AppData\Local\Arduino15\packages\MiniCore\hardware\avr\3.1.2\libraries\Wire\src/Wire.cpp:321
  if(rxBufferIndex < rxBufferLength){
    value = rxBuffer[rxBufferIndex];
  }

  return value;
}
     76c:	08 95       	ret

0000076e <TwoWire::read()>:
read():
C:\Users\Madalin\AppData\Local\Arduino15\packages\MiniCore\hardware\avr\3.1.2\libraries\Wire\src/Wire.cpp:301
int TwoWire::read(void)
{
  int value = -1;

  // get each successive byte on each call
  if(rxBufferIndex < rxBufferLength){
     76e:	90 91 de 02 	lds	r25, 0x02DE	; 0x8002de <TwoWire::rxBufferIndex>
     772:	80 91 dd 02 	lds	r24, 0x02DD	; 0x8002dd <TwoWire::rxBufferLength>
C:\Users\Madalin\AppData\Local\Arduino15\packages\MiniCore\hardware\avr\3.1.2\libraries\Wire\src/Wire.cpp:298
// must be called in:
// slave rx event callback
// or after requestFrom(address, numBytes)
int TwoWire::read(void)
{
  int value = -1;
     776:	2f ef       	ldi	r18, 0xFF	; 255
     778:	3f ef       	ldi	r19, 0xFF	; 255
C:\Users\Madalin\AppData\Local\Arduino15\packages\MiniCore\hardware\avr\3.1.2\libraries\Wire\src/Wire.cpp:301

  // get each successive byte on each call
  if(rxBufferIndex < rxBufferLength){
     77a:	98 17       	cp	r25, r24
     77c:	48 f4       	brcc	.+18     	; 0x790 <TwoWire::read()+0x22>
C:\Users\Madalin\AppData\Local\Arduino15\packages\MiniCore\hardware\avr\3.1.2\libraries\Wire\src/Wire.cpp:302
    value = rxBuffer[rxBufferIndex];
     77e:	e9 2f       	mov	r30, r25
     780:	f0 e0       	ldi	r31, 0x00	; 0
     782:	e8 5b       	subi	r30, 0xB8	; 184
     784:	fd 4f       	sbci	r31, 0xFD	; 253
     786:	20 81       	ld	r18, Z
     788:	30 e0       	ldi	r19, 0x00	; 0
C:\Users\Madalin\AppData\Local\Arduino15\packages\MiniCore\hardware\avr\3.1.2\libraries\Wire\src/Wire.cpp:303
    ++rxBufferIndex;
     78a:	9f 5f       	subi	r25, 0xFF	; 255
     78c:	90 93 de 02 	sts	0x02DE, r25	; 0x8002de <TwoWire::rxBufferIndex>
C:\Users\Madalin\AppData\Local\Arduino15\packages\MiniCore\hardware\avr\3.1.2\libraries\Wire\src/Wire.cpp:307
  }

  return value;
}
     790:	c9 01       	movw	r24, r18
     792:	08 95       	ret

00000794 <TwoWire::available()>:
available():
C:\Users\Madalin\AppData\Local\Arduino15\packages\MiniCore\hardware\avr\3.1.2\libraries\Wire\src/Wire.cpp:290
// must be called in:
// slave rx event callback
// or after requestFrom(address, numBytes)
int TwoWire::available(void)
{
  return rxBufferLength - rxBufferIndex;
     794:	80 91 dd 02 	lds	r24, 0x02DD	; 0x8002dd <TwoWire::rxBufferLength>
     798:	90 91 de 02 	lds	r25, 0x02DE	; 0x8002de <TwoWire::rxBufferIndex>
C:\Users\Madalin\AppData\Local\Arduino15\packages\MiniCore\hardware\avr\3.1.2\libraries\Wire\src/Wire.cpp:291
}
     79c:	89 1b       	sub	r24, r25
     79e:	99 0b       	sbc	r25, r25
     7a0:	08 95       	ret

000007a2 <TwoWire::write(unsigned char const*, unsigned int)>:
write():
C:\Users\Madalin\AppData\Local\Arduino15\packages\MiniCore\hardware\avr\3.1.2\libraries\Wire\src/Wire.cpp:271

// must be called in:
// slave tx event callback
// or after beginTransmission(address)
size_t TwoWire::write(const uint8_t *data, size_t quantity)
{
     7a2:	cf 92       	push	r12
     7a4:	df 92       	push	r13
     7a6:	ef 92       	push	r14
     7a8:	ff 92       	push	r15
     7aa:	0f 93       	push	r16
     7ac:	1f 93       	push	r17
     7ae:	cf 93       	push	r28
     7b0:	df 93       	push	r29
     7b2:	7c 01       	movw	r14, r24
     7b4:	cb 01       	movw	r24, r22
     7b6:	8a 01       	movw	r16, r20
C:\Users\Madalin\AppData\Local\Arduino15\packages\MiniCore\hardware\avr\3.1.2\libraries\Wire\src/Wire.cpp:272
  if(transmitting){
     7b8:	20 91 b1 02 	lds	r18, 0x02B1	; 0x8002b1 <TwoWire::transmitting>
     7bc:	22 23       	and	r18, r18
     7be:	89 f0       	breq	.+34     	; 0x7e2 <TwoWire::write(unsigned char const*, unsigned int)+0x40>
     7c0:	eb 01       	movw	r28, r22
     7c2:	6b 01       	movw	r12, r22
     7c4:	c4 0e       	add	r12, r20
     7c6:	d5 1e       	adc	r13, r21
C:\Users\Madalin\AppData\Local\Arduino15\packages\MiniCore\hardware\avr\3.1.2\libraries\Wire\src/Wire.cpp:274
  // in master transmitter mode
    for(size_t i = 0; i < quantity; ++i){
     7c8:	cc 15       	cp	r28, r12
     7ca:	dd 05       	cpc	r29, r13
     7cc:	69 f0       	breq	.+26     	; 0x7e8 <TwoWire::write(unsigned char const*, unsigned int)+0x46>
C:\Users\Madalin\AppData\Local\Arduino15\packages\MiniCore\hardware\avr\3.1.2\libraries\Wire\src/Wire.cpp:275
      write(data[i]);
     7ce:	69 91       	ld	r22, Y+
     7d0:	d7 01       	movw	r26, r14
     7d2:	ed 91       	ld	r30, X+
     7d4:	fc 91       	ld	r31, X
     7d6:	01 90       	ld	r0, Z+
     7d8:	f0 81       	ld	r31, Z
     7da:	e0 2d       	mov	r30, r0
     7dc:	c7 01       	movw	r24, r14
     7de:	09 95       	icall
     7e0:	f3 cf       	rjmp	.-26     	; 0x7c8 <TwoWire::write(unsigned char const*, unsigned int)+0x26>
C:\Users\Madalin\AppData\Local\Arduino15\packages\MiniCore\hardware\avr\3.1.2\libraries\Wire\src/Wire.cpp:280
    }
  }else{
  // in slave send mode
    // reply to master
    twi_transmit(data, quantity);
     7e2:	64 2f       	mov	r22, r20
     7e4:	0e 94 80 03 	call	0x700	; 0x700 <twi_transmit>
C:\Users\Madalin\AppData\Local\Arduino15\packages\MiniCore\hardware\avr\3.1.2\libraries\Wire\src/Wire.cpp:283
  }
  return quantity;
}
     7e8:	c8 01       	movw	r24, r16
     7ea:	df 91       	pop	r29
     7ec:	cf 91       	pop	r28
     7ee:	1f 91       	pop	r17
     7f0:	0f 91       	pop	r16
     7f2:	ff 90       	pop	r15
     7f4:	ef 90       	pop	r14
     7f6:	df 90       	pop	r13
     7f8:	cf 90       	pop	r12
     7fa:	08 95       	ret

000007fc <TwoWire::write(unsigned char)>:
C:\Users\Madalin\AppData\Local\Arduino15\packages\MiniCore\hardware\avr\3.1.2\libraries\Wire\src/Wire.cpp:246

// must be called in:
// slave tx event callback
// or after beginTransmission(address)
size_t TwoWire::write(uint8_t data)
{
     7fc:	cf 93       	push	r28
     7fe:	df 93       	push	r29
     800:	1f 92       	push	r1
     802:	cd b7       	in	r28, 0x3d	; 61
     804:	de b7       	in	r29, 0x3e	; 62
     806:	69 83       	std	Y+1, r22	; 0x01
C:\Users\Madalin\AppData\Local\Arduino15\packages\MiniCore\hardware\avr\3.1.2\libraries\Wire\src/Wire.cpp:247
  if(transmitting){
     808:	20 91 b1 02 	lds	r18, 0x02B1	; 0x8002b1 <TwoWire::transmitting>
     80c:	22 23       	and	r18, r18
     80e:	f9 f0       	breq	.+62     	; 0x84e <TwoWire::write(unsigned char)+0x52>
C:\Users\Madalin\AppData\Local\Arduino15\packages\MiniCore\hardware\avr\3.1.2\libraries\Wire\src/Wire.cpp:250
  // in master transmitter mode
    // don't bother if buffer is full
    if(txBufferLength >= TWI_BUFFER_SIZE){
     810:	20 91 db 02 	lds	r18, 0x02DB	; 0x8002db <TwoWire::txBufferLength>
     814:	20 32       	cpi	r18, 0x20	; 32
     816:	58 f0       	brcs	.+22     	; 0x82e <TwoWire::write(unsigned char)+0x32>
_ZN5Print13setWriteErrorEi():
C:\Users\Madalin\AppData\Local\Arduino15\packages\MiniCore\hardware\avr\3.1.2\cores\MCUdude_corefiles/Print.h:44
  private:
    int write_error;
    size_t printNumber(unsigned long, uint8_t);
    size_t printFloat(double, uint8_t);
  protected:
    void setWriteError(int err = 1) { write_error = err; }
     818:	21 e0       	ldi	r18, 0x01	; 1
     81a:	30 e0       	ldi	r19, 0x00	; 0
     81c:	fc 01       	movw	r30, r24
     81e:	33 83       	std	Z+3, r19	; 0x03
     820:	22 83       	std	Z+2, r18	; 0x02
write():
C:\Users\Madalin\AppData\Local\Arduino15\packages\MiniCore\hardware\avr\3.1.2\libraries\Wire\src/Wire.cpp:252
      setWriteError();
      return 0;
     822:	90 e0       	ldi	r25, 0x00	; 0
     824:	80 e0       	ldi	r24, 0x00	; 0
C:\Users\Madalin\AppData\Local\Arduino15\packages\MiniCore\hardware\avr\3.1.2\libraries\Wire\src/Wire.cpp:265
  // in slave send mode
    // reply to master
    twi_transmit(&data, 1);
  }
  return 1;
}
     826:	0f 90       	pop	r0
     828:	df 91       	pop	r29
     82a:	cf 91       	pop	r28
     82c:	08 95       	ret
C:\Users\Madalin\AppData\Local\Arduino15\packages\MiniCore\hardware\avr\3.1.2\libraries\Wire\src/Wire.cpp:255
    if(txBufferLength >= TWI_BUFFER_SIZE){
      setWriteError();
      return 0;
    }
    // put byte in tx buffer
    txBuffer[txBufferIndex] = data;
     82e:	80 91 dc 02 	lds	r24, 0x02DC	; 0x8002dc <TwoWire::txBufferIndex>
     832:	e8 2f       	mov	r30, r24
     834:	f0 e0       	ldi	r31, 0x00	; 0
     836:	ee 54       	subi	r30, 0x4E	; 78
     838:	fd 4f       	sbci	r31, 0xFD	; 253
     83a:	99 81       	ldd	r25, Y+1	; 0x01
     83c:	90 83       	st	Z, r25
C:\Users\Madalin\AppData\Local\Arduino15\packages\MiniCore\hardware\avr\3.1.2\libraries\Wire\src/Wire.cpp:256
    ++txBufferIndex;
     83e:	8f 5f       	subi	r24, 0xFF	; 255
     840:	80 93 dc 02 	sts	0x02DC, r24	; 0x8002dc <TwoWire::txBufferIndex>
C:\Users\Madalin\AppData\Local\Arduino15\packages\MiniCore\hardware\avr\3.1.2\libraries\Wire\src/Wire.cpp:258
    // update amount in buffer
    txBufferLength = txBufferIndex;
     844:	80 93 db 02 	sts	0x02DB, r24	; 0x8002db <TwoWire::txBufferLength>
C:\Users\Madalin\AppData\Local\Arduino15\packages\MiniCore\hardware\avr\3.1.2\libraries\Wire\src/Wire.cpp:264
  }else{
  // in slave send mode
    // reply to master
    twi_transmit(&data, 1);
  }
  return 1;
     848:	81 e0       	ldi	r24, 0x01	; 1
     84a:	90 e0       	ldi	r25, 0x00	; 0
     84c:	ec cf       	rjmp	.-40     	; 0x826 <TwoWire::write(unsigned char)+0x2a>
C:\Users\Madalin\AppData\Local\Arduino15\packages\MiniCore\hardware\avr\3.1.2\libraries\Wire\src/Wire.cpp:262
    // update amount in buffer
    txBufferLength = txBufferIndex;
  }else{
  // in slave send mode
    // reply to master
    twi_transmit(&data, 1);
     84e:	61 e0       	ldi	r22, 0x01	; 1
     850:	ce 01       	movw	r24, r28
     852:	01 96       	adiw	r24, 0x01	; 1
     854:	0e 94 80 03 	call	0x700	; 0x700 <twi_transmit>
     858:	f7 cf       	rjmp	.-18     	; 0x848 <TwoWire::write(unsigned char)+0x4c>

0000085a <LiquidCrystal_I2C::expanderWrite(unsigned char)>:
expanderWrite():
c:\Users\Madalin\Documents\Arduino\libraries\LiquidCrystal_I2C/LiquidCrystal_I2C.cpp:252
void LiquidCrystal_I2C::write4bits(uint8_t value) {
	expanderWrite(value);
	pulseEnable(value);
}

void LiquidCrystal_I2C::expanderWrite(uint8_t _data){                                        
     85a:	cf 93       	push	r28
c:\Users\Madalin\Documents\Arduino\libraries\LiquidCrystal_I2C/LiquidCrystal_I2C.cpp:253
	Wire.beginTransmission(_Addr);
     85c:	fc 01       	movw	r30, r24
     85e:	c4 81       	ldd	r28, Z+4	; 0x04
beginTransmission():
C:\Users\Madalin\AppData\Local\Arduino15\packages\MiniCore\hardware\avr\3.1.2\libraries\Wire\src/Wire.cpp:196
}

void TwoWire::beginTransmission(uint8_t address)
{
  // indicate that we are transmitting
  transmitting = 1;
     860:	21 e0       	ldi	r18, 0x01	; 1
     862:	20 93 b1 02 	sts	0x02B1, r18	; 0x8002b1 <TwoWire::transmitting>
C:\Users\Madalin\AppData\Local\Arduino15\packages\MiniCore\hardware\avr\3.1.2\libraries\Wire\src/Wire.cpp:198
  // set address of targeted slave
  txAddress = address;
     866:	c0 93 d2 02 	sts	0x02D2, r28	; 0x8002d2 <TwoWire::txAddress>
C:\Users\Madalin\AppData\Local\Arduino15\packages\MiniCore\hardware\avr\3.1.2\libraries\Wire\src/Wire.cpp:200
  // reset tx buffer iterator vars
  txBufferIndex = 0;
     86a:	10 92 dc 02 	sts	0x02DC, r1	; 0x8002dc <TwoWire::txBufferIndex>
C:\Users\Madalin\AppData\Local\Arduino15\packages\MiniCore\hardware\avr\3.1.2\libraries\Wire\src/Wire.cpp:201
  txBufferLength = 0;
     86e:	10 92 db 02 	sts	0x02DB, r1	; 0x8002db <TwoWire::txBufferLength>
expanderWrite():
c:\Users\Madalin\Documents\Arduino\libraries\LiquidCrystal_I2C/LiquidCrystal_I2C.cpp:254
	printIIC((int)(_data) | _backlightval);
     872:	83 85       	ldd	r24, Z+11	; 0x0b
     874:	68 2b       	or	r22, r24
write():
C:\Users\Madalin\AppData\Local\Arduino15\packages\MiniCore\hardware\avr\3.1.2\libraries\Wire\src/Wire.h:87
    void onRequest( void (*)(void) );

    inline size_t write(unsigned long n) { return write((uint8_t)n); }
    inline size_t write(long n) { return write((uint8_t)n); }
    inline size_t write(unsigned int n) { return write((uint8_t)n); }
    inline size_t write(int n) { return write((uint8_t)n); }
     876:	86 e9       	ldi	r24, 0x96	; 150
     878:	93 e0       	ldi	r25, 0x03	; 3
     87a:	0e 94 fe 03 	call	0x7fc	; 0x7fc <TwoWire::write(unsigned char)>
endTransmission():
C:\Users\Madalin\AppData\Local\Arduino15\packages\MiniCore\hardware\avr\3.1.2\libraries\Wire\src/Wire.cpp:225
//  devices will behave oddly if they do not see a STOP.
//
uint8_t TwoWire::endTransmission(uint8_t sendStop)
{
  // transmit buffer (blocking)
  uint8_t ret = twi_writeTo(txAddress, txBuffer, txBufferLength, 1, sendStop);
     87e:	80 91 db 02 	lds	r24, 0x02DB	; 0x8002db <TwoWire::txBufferLength>
twi_writeTo():
C:\Users\Madalin\AppData\Local\Arduino15\packages\MiniCore\hardware\avr\3.1.2\libraries\Wire\src\utility/twi.c:268
 *          5 .. timeout
 */
uint8_t twi_writeTo(uint8_t address, uint8_t* data, uint8_t length, uint8_t wait, uint8_t sendStop)
{
  // ensure data will fit into buffer
  if(TWI_BUFFER_SIZE < length){
     882:	81 32       	cpi	r24, 0x21	; 33
     884:	f0 f5       	brcc	.+124    	; 0x902 <__stack+0x3>
C:\Users\Madalin\AppData\Local\Arduino15\packages\MiniCore\hardware\avr\3.1.2\libraries\Wire\src\utility/twi.c:282
        twi_handleTimeout(twi_do_reset_on_timeout);
        return (5);
      }
    }
  #else
    while(TWI_READY != twi_state){
     886:	90 91 da 02 	lds	r25, 0x02DA	; 0x8002da <twi_state>
     88a:	91 11       	cpse	r25, r1
     88c:	fc cf       	rjmp	.-8      	; 0x886 <LiquidCrystal_I2C::expanderWrite(unsigned char)+0x2c>
C:\Users\Madalin\AppData\Local\Arduino15\packages\MiniCore\hardware\avr\3.1.2\libraries\Wire\src\utility/twi.c:287
      continue;
    }
  #endif

  twi_state = TWI_MTX;
     88e:	92 e0       	ldi	r25, 0x02	; 2
     890:	90 93 da 02 	sts	0x02DA, r25	; 0x8002da <twi_state>
C:\Users\Madalin\AppData\Local\Arduino15\packages\MiniCore\hardware\avr\3.1.2\libraries\Wire\src\utility/twi.c:288
  twi_sendStop = sendStop;
     894:	91 e0       	ldi	r25, 0x01	; 1
     896:	90 93 d9 02 	sts	0x02D9, r25	; 0x8002d9 <twi_sendStop>
C:\Users\Madalin\AppData\Local\Arduino15\packages\MiniCore\hardware\avr\3.1.2\libraries\Wire\src\utility/twi.c:290
  // reset error state (0xFF.. no error occurred)
  twi_error = 0xFF;
     89a:	9f ef       	ldi	r25, 0xFF	; 255
     89c:	90 93 b0 02 	sts	0x02B0, r25	; 0x8002b0 <twi_error>
C:\Users\Madalin\AppData\Local\Arduino15\packages\MiniCore\hardware\avr\3.1.2\libraries\Wire\src\utility/twi.c:293

  // initialize buffer iteration vars
  twi_masterBuffer = data;
     8a0:	22 eb       	ldi	r18, 0xB2	; 178
     8a2:	32 e0       	ldi	r19, 0x02	; 2
     8a4:	30 93 af 02 	sts	0x02AF, r19	; 0x8002af <twi_masterBuffer+0x1>
     8a8:	20 93 ae 02 	sts	0x02AE, r18	; 0x8002ae <twi_masterBuffer>
C:\Users\Madalin\AppData\Local\Arduino15\packages\MiniCore\hardware\avr\3.1.2\libraries\Wire\src\utility/twi.c:294
  twi_masterBufferIndex = 0;
     8ac:	10 92 ad 02 	sts	0x02AD, r1	; 0x8002ad <twi_masterBufferIndex>
C:\Users\Madalin\AppData\Local\Arduino15\packages\MiniCore\hardware\avr\3.1.2\libraries\Wire\src\utility/twi.c:295
  twi_masterBufferLength = length;
     8b0:	80 93 ac 02 	sts	0x02AC, r24	; 0x8002ac <twi_masterBufferLength>
C:\Users\Madalin\AppData\Local\Arduino15\packages\MiniCore\hardware\avr\3.1.2\libraries\Wire\src\utility/twi.c:298

  // build sla+w, slave device address + w bit
  twi_slarw = TW_WRITE;
     8b4:	10 92 ab 02 	sts	0x02AB, r1	; 0x8002ab <twi_slarw>
C:\Users\Madalin\AppData\Local\Arduino15\packages\MiniCore\hardware\avr\3.1.2\libraries\Wire\src\utility/twi.c:299
  twi_slarw |= address << 1;
     8b8:	80 91 ab 02 	lds	r24, 0x02AB	; 0x8002ab <twi_slarw>
     8bc:	cc 0f       	add	r28, r28
     8be:	c8 2b       	or	r28, r24
     8c0:	c0 93 ab 02 	sts	0x02AB, r28	; 0x8002ab <twi_slarw>
C:\Users\Madalin\AppData\Local\Arduino15\packages\MiniCore\hardware\avr\3.1.2\libraries\Wire\src\utility/twi.c:304

  // if we're in a repeated start, then we've already sent the START
  // in the ISR. Don't do it again.
  //
  if (true == twi_inRepStart) {
     8c4:	80 91 d8 02 	lds	r24, 0x02D8	; 0x8002d8 <twi_inRepStart>
     8c8:	81 30       	cpi	r24, 0x01	; 1
     8ca:	19 f5       	brne	.+70     	; 0x912 <__stack+0x13>
C:\Users\Madalin\AppData\Local\Arduino15\packages\MiniCore\hardware\avr\3.1.2\libraries\Wire\src\utility/twi.c:311
    // (@@@ we hope), and the TWI statemachine is just waiting for the address byte.
    // We need to remove ourselves from the repeated start state before we enable interrupts,
    // since the ISR is ASYNC, and we could get confused if we hit the ISR before cleaning
    // up. Also, don't enable the START interrupt. There may be one pending from the 
    // repeated start that we sent ourselves, and that would really confuse things.
    twi_inRepStart = false; // Remember, we're dealing with an ASYNC ISR
     8cc:	10 92 d8 02 	sts	0x02D8, r1	; 0x8002d8 <twi_inRepStart>
C:\Users\Madalin\AppData\Local\Arduino15\packages\MiniCore\hardware\avr\3.1.2\libraries\Wire\src\utility/twi.c:322
          return (5);
        }
      } while(TWCR & _BV(TWWC));
    #else
      do {
        TWDR = twi_slarw;
     8d0:	80 91 ab 02 	lds	r24, 0x02AB	; 0x8002ab <twi_slarw>
     8d4:	80 93 bb 00 	sts	0x00BB, r24	; 0x8000bb <__DATA_REGION_ORIGIN__+0x5b>
C:\Users\Madalin\AppData\Local\Arduino15\packages\MiniCore\hardware\avr\3.1.2\libraries\Wire\src\utility/twi.c:323
      } while(TWCR & _BV(TWWC));
     8d8:	80 91 bc 00 	lds	r24, 0x00BC	; 0x8000bc <__DATA_REGION_ORIGIN__+0x5c>
     8dc:	83 fd       	sbrc	r24, 3
     8de:	f8 cf       	rjmp	.-16     	; 0x8d0 <LiquidCrystal_I2C::expanderWrite(unsigned char)+0x76>
C:\Users\Madalin\AppData\Local\Arduino15\packages\MiniCore\hardware\avr\3.1.2\libraries\Wire\src\utility/twi.c:325
    #endif
    TWCR = _BV(TWINT) | _BV(TWEA) | _BV(TWEN) | _BV(TWIE);  // enable INTs, but not START
     8e0:	85 ec       	ldi	r24, 0xC5	; 197
C:\Users\Madalin\AppData\Local\Arduino15\packages\MiniCore\hardware\avr\3.1.2\libraries\Wire\src\utility/twi.c:329
  }
  else
    // send start condition
    TWCR = _BV(TWINT) | _BV(TWEA) | _BV(TWEN) | _BV(TWIE) | _BV(TWSTA); // enable INTs
     8e2:	80 93 bc 00 	sts	0x00BC, r24	; 0x8000bc <__DATA_REGION_ORIGIN__+0x5c>
C:\Users\Madalin\AppData\Local\Arduino15\packages\MiniCore\hardware\avr\3.1.2\libraries\Wire\src\utility/twi.c:341
        twi_handleTimeout(twi_do_reset_on_timeout);
        return (5);
      }
    }
  #else
    while(wait && (TWI_MTX == twi_state)){
     8e6:	80 91 da 02 	lds	r24, 0x02DA	; 0x8002da <twi_state>
     8ea:	82 30       	cpi	r24, 0x02	; 2
     8ec:	e1 f3       	breq	.-8      	; 0x8e6 <LiquidCrystal_I2C::expanderWrite(unsigned char)+0x8c>
C:\Users\Madalin\AppData\Local\Arduino15\packages\MiniCore\hardware\avr\3.1.2\libraries\Wire\src\utility/twi.c:346
      continue;
    }
  #endif

  if (twi_error == 0xFF)
     8ee:	80 91 b0 02 	lds	r24, 0x02B0	; 0x8002b0 <twi_error>
     8f2:	8f 3f       	cpi	r24, 0xFF	; 255
     8f4:	31 f0       	breq	.+12     	; 0x902 <__stack+0x3>
C:\Users\Madalin\AppData\Local\Arduino15\packages\MiniCore\hardware\avr\3.1.2\libraries\Wire\src\utility/twi.c:348
    return 0; // success
  else if (twi_error == TW_MT_SLA_NACK)
     8f6:	80 91 b0 02 	lds	r24, 0x02B0	; 0x8002b0 <twi_error>
     8fa:	80 32       	cpi	r24, 0x20	; 32
     8fc:	11 f0       	breq	.+4      	; 0x902 <__stack+0x3>
C:\Users\Madalin\AppData\Local\Arduino15\packages\MiniCore\hardware\avr\3.1.2\libraries\Wire\src\utility/twi.c:350
    return 2; // error: address send, nack received
  else if (twi_error == TW_MT_DATA_NACK)
     8fe:	80 91 b0 02 	lds	r24, 0x02B0	; 0x8002b0 <twi_error>
endTransmission():
C:\Users\Madalin\AppData\Local\Arduino15\packages\MiniCore\hardware\avr\3.1.2\libraries\Wire\src/Wire.cpp:227
  // reset tx buffer iterator vars
  txBufferIndex = 0;
     902:	10 92 dc 02 	sts	0x02DC, r1	; 0x8002dc <TwoWire::txBufferIndex>
C:\Users\Madalin\AppData\Local\Arduino15\packages\MiniCore\hardware\avr\3.1.2\libraries\Wire\src/Wire.cpp:228
  txBufferLength = 0;
     906:	10 92 db 02 	sts	0x02DB, r1	; 0x8002db <TwoWire::txBufferLength>
C:\Users\Madalin\AppData\Local\Arduino15\packages\MiniCore\hardware\avr\3.1.2\libraries\Wire\src/Wire.cpp:230
  // indicate that we are done transmitting
  transmitting = 0;
     90a:	10 92 b1 02 	sts	0x02B1, r1	; 0x8002b1 <TwoWire::transmitting>
expanderWrite():
c:\Users\Madalin\Documents\Arduino\libraries\LiquidCrystal_I2C/LiquidCrystal_I2C.cpp:256
	Wire.endTransmission();   
}
     90e:	cf 91       	pop	r28
     910:	08 95       	ret
twi_writeTo():
C:\Users\Madalin\AppData\Local\Arduino15\packages\MiniCore\hardware\avr\3.1.2\libraries\Wire\src\utility/twi.c:329
    #endif
    TWCR = _BV(TWINT) | _BV(TWEA) | _BV(TWEN) | _BV(TWIE);  // enable INTs, but not START
  }
  else
    // send start condition
    TWCR = _BV(TWINT) | _BV(TWEA) | _BV(TWEN) | _BV(TWIE) | _BV(TWSTA); // enable INTs
     912:	85 ee       	ldi	r24, 0xE5	; 229
     914:	e6 cf       	rjmp	.-52     	; 0x8e2 <LiquidCrystal_I2C::expanderWrite(unsigned char)+0x88>

00000916 <LiquidCrystal_I2C::write4bits(unsigned char)>:
write4bits():
c:\Users\Madalin\Documents\Arduino\libraries\LiquidCrystal_I2C/LiquidCrystal_I2C.cpp:247
	uint8_t lownib=(value<<4)&0xf0;
       write4bits((highnib)|mode);
	write4bits((lownib)|mode); 
}

void LiquidCrystal_I2C::write4bits(uint8_t value) {
     916:	0f 93       	push	r16
     918:	1f 93       	push	r17
     91a:	cf 93       	push	r28
     91c:	8c 01       	movw	r16, r24
     91e:	c6 2f       	mov	r28, r22
c:\Users\Madalin\Documents\Arduino\libraries\LiquidCrystal_I2C/LiquidCrystal_I2C.cpp:248
	expanderWrite(value);
     920:	0e 94 2d 04 	call	0x85a	; 0x85a <LiquidCrystal_I2C::expanderWrite(unsigned char)>
pulseEnable():
c:\Users\Madalin\Documents\Arduino\libraries\LiquidCrystal_I2C/LiquidCrystal_I2C.cpp:259
	printIIC((int)(_data) | _backlightval);
	Wire.endTransmission();   
}

void LiquidCrystal_I2C::pulseEnable(uint8_t _data){
	expanderWrite(_data | En);	// En high
     924:	6c 2f       	mov	r22, r28
     926:	64 60       	ori	r22, 0x04	; 4
     928:	c8 01       	movw	r24, r16
     92a:	0e 94 2d 04 	call	0x85a	; 0x85a <LiquidCrystal_I2C::expanderWrite(unsigned char)>
c:\Users\Madalin\Documents\Arduino\libraries\LiquidCrystal_I2C/LiquidCrystal_I2C.cpp:260
	delayMicroseconds(1);		// enable pulse must be >450ns
     92e:	81 e0       	ldi	r24, 0x01	; 1
     930:	90 e0       	ldi	r25, 0x00	; 0
     932:	0e 94 04 02 	call	0x408	; 0x408 <delayMicroseconds>
c:\Users\Madalin\Documents\Arduino\libraries\LiquidCrystal_I2C/LiquidCrystal_I2C.cpp:262
	
	expanderWrite(_data & ~En);	// En low
     936:	6c 2f       	mov	r22, r28
     938:	6b 7f       	andi	r22, 0xFB	; 251
     93a:	c8 01       	movw	r24, r16
     93c:	0e 94 2d 04 	call	0x85a	; 0x85a <LiquidCrystal_I2C::expanderWrite(unsigned char)>
c:\Users\Madalin\Documents\Arduino\libraries\LiquidCrystal_I2C/LiquidCrystal_I2C.cpp:263
	delayMicroseconds(50);		// commands need > 37us to settle
     940:	82 e3       	ldi	r24, 0x32	; 50
     942:	90 e0       	ldi	r25, 0x00	; 0
write4bits():
c:\Users\Madalin\Documents\Arduino\libraries\LiquidCrystal_I2C/LiquidCrystal_I2C.cpp:250
}

void LiquidCrystal_I2C::write4bits(uint8_t value) {
	expanderWrite(value);
	pulseEnable(value);
}
     944:	cf 91       	pop	r28
     946:	1f 91       	pop	r17
     948:	0f 91       	pop	r16
pulseEnable():
c:\Users\Madalin\Documents\Arduino\libraries\LiquidCrystal_I2C/LiquidCrystal_I2C.cpp:263
void LiquidCrystal_I2C::pulseEnable(uint8_t _data){
	expanderWrite(_data | En);	// En high
	delayMicroseconds(1);		// enable pulse must be >450ns
	
	expanderWrite(_data & ~En);	// En low
	delayMicroseconds(50);		// commands need > 37us to settle
     94a:	0c 94 04 02 	jmp	0x408	; 0x408 <delayMicroseconds>

0000094e <LiquidCrystal_I2C::send(unsigned char, unsigned char)>:
send():
c:\Users\Madalin\Documents\Arduino\libraries\LiquidCrystal_I2C/LiquidCrystal_I2C.cpp:240


/************ low level data pushing commands **********/

// write either command or data
void LiquidCrystal_I2C::send(uint8_t value, uint8_t mode) {
     94e:	0f 93       	push	r16
     950:	1f 93       	push	r17
     952:	cf 93       	push	r28
     954:	df 93       	push	r29
     956:	8c 01       	movw	r16, r24
     958:	d6 2f       	mov	r29, r22
     95a:	c4 2f       	mov	r28, r20
c:\Users\Madalin\Documents\Arduino\libraries\LiquidCrystal_I2C/LiquidCrystal_I2C.cpp:241
	uint8_t highnib=value&0xf0;
     95c:	60 7f       	andi	r22, 0xF0	; 240
c:\Users\Madalin\Documents\Arduino\libraries\LiquidCrystal_I2C/LiquidCrystal_I2C.cpp:243
	uint8_t lownib=(value<<4)&0xf0;
       write4bits((highnib)|mode);
     95e:	64 2b       	or	r22, r20
     960:	0e 94 8b 04 	call	0x916	; 0x916 <LiquidCrystal_I2C::write4bits(unsigned char)>
c:\Users\Madalin\Documents\Arduino\libraries\LiquidCrystal_I2C/LiquidCrystal_I2C.cpp:242
/************ low level data pushing commands **********/

// write either command or data
void LiquidCrystal_I2C::send(uint8_t value, uint8_t mode) {
	uint8_t highnib=value&0xf0;
	uint8_t lownib=(value<<4)&0xf0;
     964:	80 e1       	ldi	r24, 0x10	; 16
     966:	d8 9f       	mul	r29, r24
     968:	b0 01       	movw	r22, r0
     96a:	11 24       	eor	r1, r1
c:\Users\Madalin\Documents\Arduino\libraries\LiquidCrystal_I2C/LiquidCrystal_I2C.cpp:244
       write4bits((highnib)|mode);
	write4bits((lownib)|mode); 
     96c:	6c 2b       	or	r22, r28
     96e:	c8 01       	movw	r24, r16
c:\Users\Madalin\Documents\Arduino\libraries\LiquidCrystal_I2C/LiquidCrystal_I2C.cpp:245
}
     970:	df 91       	pop	r29
     972:	cf 91       	pop	r28
     974:	1f 91       	pop	r17
     976:	0f 91       	pop	r16
c:\Users\Madalin\Documents\Arduino\libraries\LiquidCrystal_I2C/LiquidCrystal_I2C.cpp:244
// write either command or data
void LiquidCrystal_I2C::send(uint8_t value, uint8_t mode) {
	uint8_t highnib=value&0xf0;
	uint8_t lownib=(value<<4)&0xf0;
       write4bits((highnib)|mode);
	write4bits((lownib)|mode); 
     978:	0c 94 8b 04 	jmp	0x916	; 0x916 <LiquidCrystal_I2C::write4bits(unsigned char)>

0000097c <LiquidCrystal_I2C::write(unsigned char)>:
write():
c:\Users\Madalin\Documents\Arduino\libraries\LiquidCrystal_I2C/LiquidCrystal_I2C.cpp:11

#include "Arduino.h"

#define printIIC(args)	Wire.write(args)
inline size_t LiquidCrystal_I2C::write(uint8_t value) {
	send(value, Rs);
     97c:	41 e0       	ldi	r20, 0x01	; 1
     97e:	0e 94 a7 04 	call	0x94e	; 0x94e <LiquidCrystal_I2C::send(unsigned char, unsigned char)>
c:\Users\Madalin\Documents\Arduino\libraries\LiquidCrystal_I2C/LiquidCrystal_I2C.cpp:13
	return 1;
}
     982:	81 e0       	ldi	r24, 0x01	; 1
     984:	90 e0       	ldi	r25, 0x00	; 0
     986:	08 95       	ret

00000988 <LiquidCrystal_I2C::setCursor(unsigned char, unsigned char) [clone .constprop.23]>:
setCursor():
c:\Users\Madalin\Documents\Arduino\libraries\LiquidCrystal_I2C/LiquidCrystal_I2C.cpp:137
void LiquidCrystal_I2C::home(){
	command(LCD_RETURNHOME);  // set cursor position to zero
	delayMicroseconds(2000);  // this command takes a long time!
}

void LiquidCrystal_I2C::setCursor(uint8_t col, uint8_t row){
     988:	cf 93       	push	r28
     98a:	df 93       	push	r29
     98c:	cd b7       	in	r28, 0x3d	; 61
     98e:	de b7       	in	r29, 0x3e	; 62
     990:	28 97       	sbiw	r28, 0x08	; 8
     992:	0f b6       	in	r0, 0x3f	; 63
     994:	f8 94       	cli
     996:	de bf       	out	0x3e, r29	; 62
     998:	0f be       	out	0x3f, r0	; 63
     99a:	cd bf       	out	0x3d, r28	; 61
c:\Users\Madalin\Documents\Arduino\libraries\LiquidCrystal_I2C/LiquidCrystal_I2C.cpp:138
	int row_offsets[] = { 0x00, 0x40, 0x14, 0x54 };
     99c:	88 e0       	ldi	r24, 0x08	; 8
     99e:	e8 e0       	ldi	r30, 0x08	; 8
     9a0:	f1 e0       	ldi	r31, 0x01	; 1
     9a2:	de 01       	movw	r26, r28
     9a4:	11 96       	adiw	r26, 0x01	; 1
     9a6:	01 90       	ld	r0, Z+
     9a8:	0d 92       	st	X+, r0
     9aa:	8a 95       	dec	r24
     9ac:	e1 f7       	brne	.-8      	; 0x9a6 <LiquidCrystal_I2C::setCursor(unsigned char, unsigned char) [clone .constprop.23]+0x1e>
c:\Users\Madalin\Documents\Arduino\libraries\LiquidCrystal_I2C/LiquidCrystal_I2C.cpp:139
	if ( row > _numlines ) {
     9ae:	80 91 d2 03 	lds	r24, 0x03D2	; 0x8003d2 <lcd+0x8>
     9b2:	81 11       	cpse	r24, r1
     9b4:	1a c0       	rjmp	.+52     	; 0x9ea <LiquidCrystal_I2C::setCursor(unsigned char, unsigned char) [clone .constprop.23]+0x62>
c:\Users\Madalin\Documents\Arduino\libraries\LiquidCrystal_I2C/LiquidCrystal_I2C.cpp:140
		row = _numlines-1;    // we count rows starting w/0
     9b6:	8f ef       	ldi	r24, 0xFF	; 255
c:\Users\Madalin\Documents\Arduino\libraries\LiquidCrystal_I2C/LiquidCrystal_I2C.cpp:142
	}
	command(LCD_SETDDRAMADDR | (col + row_offsets[row]));
     9b8:	90 e0       	ldi	r25, 0x00	; 0
     9ba:	88 0f       	add	r24, r24
     9bc:	99 1f       	adc	r25, r25
     9be:	21 e0       	ldi	r18, 0x01	; 1
     9c0:	30 e0       	ldi	r19, 0x00	; 0
     9c2:	2c 0f       	add	r18, r28
     9c4:	3d 1f       	adc	r19, r29
     9c6:	82 0f       	add	r24, r18
     9c8:	93 1f       	adc	r25, r19
     9ca:	fc 01       	movw	r30, r24
     9cc:	60 81       	ld	r22, Z
     9ce:	60 68       	ori	r22, 0x80	; 128
command():
c:\Users\Madalin\Documents\Arduino\libraries\LiquidCrystal_I2C/LiquidCrystal_I2C.cpp:233


/*********** mid level commands, for sending data/cmds */

inline void LiquidCrystal_I2C::command(uint8_t value) {
	send(value, 0);
     9d0:	40 e0       	ldi	r20, 0x00	; 0
     9d2:	8a ec       	ldi	r24, 0xCA	; 202
     9d4:	93 e0       	ldi	r25, 0x03	; 3
setCursor():
c:\Users\Madalin\Documents\Arduino\libraries\LiquidCrystal_I2C/LiquidCrystal_I2C.cpp:143
	int row_offsets[] = { 0x00, 0x40, 0x14, 0x54 };
	if ( row > _numlines ) {
		row = _numlines-1;    // we count rows starting w/0
	}
	command(LCD_SETDDRAMADDR | (col + row_offsets[row]));
}
     9d6:	28 96       	adiw	r28, 0x08	; 8
     9d8:	0f b6       	in	r0, 0x3f	; 63
     9da:	f8 94       	cli
     9dc:	de bf       	out	0x3e, r29	; 62
     9de:	0f be       	out	0x3f, r0	; 63
     9e0:	cd bf       	out	0x3d, r28	; 61
     9e2:	df 91       	pop	r29
     9e4:	cf 91       	pop	r28
command():
c:\Users\Madalin\Documents\Arduino\libraries\LiquidCrystal_I2C/LiquidCrystal_I2C.cpp:233


/*********** mid level commands, for sending data/cmds */

inline void LiquidCrystal_I2C::command(uint8_t value) {
	send(value, 0);
     9e6:	0c 94 a7 04 	jmp	0x94e	; 0x94e <LiquidCrystal_I2C::send(unsigned char, unsigned char)>
setCursor():
c:\Users\Madalin\Documents\Arduino\libraries\LiquidCrystal_I2C/LiquidCrystal_I2C.cpp:139
	delayMicroseconds(2000);  // this command takes a long time!
}

void LiquidCrystal_I2C::setCursor(uint8_t col, uint8_t row){
	int row_offsets[] = { 0x00, 0x40, 0x14, 0x54 };
	if ( row > _numlines ) {
     9ea:	81 e0       	ldi	r24, 0x01	; 1
     9ec:	e5 cf       	rjmp	.-54     	; 0x9b8 <LiquidCrystal_I2C::setCursor(unsigned char, unsigned char) [clone .constprop.23]+0x30>

000009ee <LiquidCrystal_I2C::clear() [clone .constprop.21]>:
command():
c:\Users\Madalin\Documents\Arduino\libraries\LiquidCrystal_I2C/LiquidCrystal_I2C.cpp:233


/*********** mid level commands, for sending data/cmds */

inline void LiquidCrystal_I2C::command(uint8_t value) {
	send(value, 0);
     9ee:	40 e0       	ldi	r20, 0x00	; 0
     9f0:	61 e0       	ldi	r22, 0x01	; 1
     9f2:	8a ec       	ldi	r24, 0xCA	; 202
     9f4:	93 e0       	ldi	r25, 0x03	; 3
     9f6:	0e 94 a7 04 	call	0x94e	; 0x94e <LiquidCrystal_I2C::send(unsigned char, unsigned char)>
clear():
c:\Users\Madalin\Documents\Arduino\libraries\LiquidCrystal_I2C/LiquidCrystal_I2C.cpp:129
}

/********** high level commands, for the user! */
void LiquidCrystal_I2C::clear(){
	command(LCD_CLEARDISPLAY);// clear display, set cursor position to zero
	delayMicroseconds(2000);  // this command takes a long time!
     9fa:	80 ed       	ldi	r24, 0xD0	; 208
     9fc:	97 e0       	ldi	r25, 0x07	; 7
     9fe:	0c 94 04 02 	jmp	0x408	; 0x408 <delayMicroseconds>

00000a02 <Print::availableForWrite()>:
availableForWrite():
C:\Users\Madalin\AppData\Local\Arduino15\packages\MiniCore\hardware\avr\3.1.2\cores\MCUdude_corefiles/Print.h:63
      return write((const uint8_t *)buffer, size);
    }

    // default to zero, meaning "a single write may block"
    // should be overriden by subclasses with buffering
    virtual int availableForWrite() { return 0; }
     a02:	90 e0       	ldi	r25, 0x00	; 0
     a04:	80 e0       	ldi	r24, 0x00	; 0
     a06:	08 95       	ret

00000a08 <setRGB(int, int, int)>:
setRGB():
C:\Users\Madalin\Documents\Arduino\proiect_pm/proiect_pm.ino:177
  setRGB(0, 0, 0);
  lcd.clear(); lcd.print("INTRODU PIN:");
  actualizeazaLCD();
}

     a08:	0f 93       	push	r16
     a0a:	1f 93       	push	r17
     a0c:	cf 93       	push	r28
     a0e:	df 93       	push	r29
     a10:	8b 01       	movw	r16, r22
     a12:	ea 01       	movw	r28, r20
     a14:	bc 01       	movw	r22, r24
     a16:	8a e0       	ldi	r24, 0x0A	; 10
     a18:	0e 94 a7 01 	call	0x34e	; 0x34e <analogWrite>
     a1c:	b8 01       	movw	r22, r16
     a1e:	8b e0       	ldi	r24, 0x0B	; 11
     a20:	0e 94 a7 01 	call	0x34e	; 0x34e <analogWrite>
     a24:	be 01       	movw	r22, r28
     a26:	8c e0       	ldi	r24, 0x0C	; 12
     a28:	df 91       	pop	r29
     a2a:	cf 91       	pop	r28
     a2c:	1f 91       	pop	r17
     a2e:	0f 91       	pop	r16
     a30:	0c 94 a7 01 	jmp	0x34e	; 0x34e <analogWrite>

00000a34 <trezireSistem()>:
millis():
C:\Users\Madalin\AppData\Local\Arduino15\packages\MiniCore\hardware\avr\3.1.2\cores\MCUdude_corefiles/wiring.c:218
}

unsigned long millis()
{
  unsigned long m;
  uint8_t oldSREG = SREG;
     a34:	2f b7       	in	r18, 0x3f	; 63
C:\Users\Madalin\AppData\Local\Arduino15\packages\MiniCore\hardware\avr\3.1.2\cores\MCUdude_corefiles/wiring.c:222

  // disable interrupts while we read timer0_millis or we might get an
  // inconsistent value (e.g. in the middle of a write to timer0_millis)
  cli();
     a36:	f8 94       	cli
C:\Users\Madalin\AppData\Local\Arduino15\packages\MiniCore\hardware\avr\3.1.2\cores\MCUdude_corefiles/wiring.c:223
  m = timer0_millis;
     a38:	80 91 f1 02 	lds	r24, 0x02F1	; 0x8002f1 <timer0_millis>
     a3c:	90 91 f2 02 	lds	r25, 0x02F2	; 0x8002f2 <timer0_millis+0x1>
     a40:	a0 91 f3 02 	lds	r26, 0x02F3	; 0x8002f3 <timer0_millis+0x2>
     a44:	b0 91 f4 02 	lds	r27, 0x02F4	; 0x8002f4 <timer0_millis+0x3>
C:\Users\Madalin\AppData\Local\Arduino15\packages\MiniCore\hardware\avr\3.1.2\cores\MCUdude_corefiles/wiring.c:224
  SREG = oldSREG;
     a48:	2f bf       	out	0x3f, r18	; 63
trezireSistem():
C:\Users\Madalin\Documents\Arduino\proiect_pm/proiect_pm.ino:167
    else if (i == pozitieCifra) { lcd.print("["); lcd.print(pinIntrodus[i]); lcd.print("]"); }
    else lcd.print(" _ ");
  }
}

void trezireSistem() { timpUltimaApasare = millis(); lcd.backlight(); }
     a4a:	80 93 eb 02 	sts	0x02EB, r24	; 0x8002eb <timpUltimaApasare>
     a4e:	90 93 ec 02 	sts	0x02EC, r25	; 0x8002ec <timpUltimaApasare+0x1>
     a52:	a0 93 ed 02 	sts	0x02ED, r26	; 0x8002ed <timpUltimaApasare+0x2>
     a56:	b0 93 ee 02 	sts	0x02EE, r27	; 0x8002ee <timpUltimaApasare+0x3>
backlight():
c:\Users\Madalin\Documents\Arduino\libraries\LiquidCrystal_I2C/LiquidCrystal_I2C.cpp:224
	_backlightval=LCD_NOBACKLIGHT;
	expanderWrite(0);
}

void LiquidCrystal_I2C::backlight(void) {
	_backlightval=LCD_BACKLIGHT;
     a5a:	88 e0       	ldi	r24, 0x08	; 8
     a5c:	80 93 d5 03 	sts	0x03D5, r24	; 0x8003d5 <lcd+0xb>
c:\Users\Madalin\Documents\Arduino\libraries\LiquidCrystal_I2C/LiquidCrystal_I2C.cpp:225
	expanderWrite(0);
     a60:	60 e0       	ldi	r22, 0x00	; 0
     a62:	8a ec       	ldi	r24, 0xCA	; 202
     a64:	93 e0       	ldi	r25, 0x03	; 3
     a66:	0c 94 2d 04 	jmp	0x85a	; 0x85a <LiquidCrystal_I2C::expanderWrite(unsigned char)>

00000a6a <Print::write(char const*) [clone .part.2]>:
_ZN5Print5writeEPKc.part.2():
C:\Users\Madalin\AppData\Local\Arduino15\packages\MiniCore\hardware\avr\3.1.2\cores\MCUdude_corefiles/Print.h:54
    void clearWriteError() { setWriteError(0); }

    virtual size_t write(uint8_t) = 0;
    size_t write(const char *str) {
      if (str == NULL) return 0;
      return write((const uint8_t *)str, strlen(str));
     a6a:	fb 01       	movw	r30, r22
     a6c:	01 90       	ld	r0, Z+
     a6e:	00 20       	and	r0, r0
     a70:	e9 f7       	brne	.-6      	; 0xa6c <Print::write(char const*) [clone .part.2]+0x2>
     a72:	31 97       	sbiw	r30, 0x01	; 1
     a74:	af 01       	movw	r20, r30
     a76:	46 1b       	sub	r20, r22
     a78:	57 0b       	sbc	r21, r23
     a7a:	dc 01       	movw	r26, r24
     a7c:	ed 91       	ld	r30, X+
     a7e:	fc 91       	ld	r31, X
     a80:	02 80       	ldd	r0, Z+2	; 0x02
     a82:	f3 81       	ldd	r31, Z+3	; 0x03
     a84:	e0 2d       	mov	r30, r0
     a86:	09 94       	ijmp

00000a88 <Print::printNumber(unsigned long, unsigned char) [clone .constprop.34]>:
printNumber():
C:\Users\Madalin\AppData\Local\Arduino15\packages\MiniCore\hardware\avr\3.1.2\cores\MCUdude_corefiles/Print.cpp:232
  return vfprintf_P(&f, (const char *)format, ap);
}

// Private Methods /////////////////////////////////////////////////////////////

size_t Print::printNumber(unsigned long n, uint8_t base)
     a88:	8f 92       	push	r8
     a8a:	9f 92       	push	r9
     a8c:	af 92       	push	r10
     a8e:	bf 92       	push	r11
     a90:	0f 93       	push	r16
     a92:	1f 93       	push	r17
     a94:	cf 93       	push	r28
     a96:	df 93       	push	r29
     a98:	cd b7       	in	r28, 0x3d	; 61
     a9a:	de b7       	in	r29, 0x3e	; 62
     a9c:	a1 97       	sbiw	r28, 0x21	; 33
     a9e:	0f b6       	in	r0, 0x3f	; 63
     aa0:	f8 94       	cli
     aa2:	de bf       	out	0x3e, r29	; 62
     aa4:	0f be       	out	0x3f, r0	; 63
     aa6:	cd bf       	out	0x3d, r28	; 61
C:\Users\Madalin\AppData\Local\Arduino15\packages\MiniCore\hardware\avr\3.1.2\cores\MCUdude_corefiles/Print.cpp:237
{
  char buf[8 * sizeof(long) + 1]; // Assumes 8-bit chars plus zero byte.
  char *str = &buf[sizeof(buf) - 1];

  *str = '\0';
     aa8:	19 a2       	std	Y+33, r1	; 0x21
C:\Users\Madalin\AppData\Local\Arduino15\packages\MiniCore\hardware\avr\3.1.2\cores\MCUdude_corefiles/Print.cpp:240

  // prevent crash if called with base == 1
  if (base < 2) base = 10;
     aaa:	42 30       	cpi	r20, 0x02	; 2
     aac:	08 f4       	brcc	.+2      	; 0xab0 <Print::printNumber(unsigned long, unsigned char) [clone .constprop.34]+0x28>
     aae:	4a e0       	ldi	r20, 0x0A	; 10
     ab0:	8e 01       	movw	r16, r28
     ab2:	0f 5d       	subi	r16, 0xDF	; 223
     ab4:	1f 4f       	sbci	r17, 0xFF	; 255
C:\Users\Madalin\AppData\Local\Arduino15\packages\MiniCore\hardware\avr\3.1.2\cores\MCUdude_corefiles/Print.cpp:243

  do {
    char c = n % base;
     ab6:	84 2e       	mov	r8, r20
     ab8:	91 2c       	mov	r9, r1
     aba:	b1 2c       	mov	r11, r1
     abc:	a1 2c       	mov	r10, r1
     abe:	a5 01       	movw	r20, r10
     ac0:	94 01       	movw	r18, r8
     ac2:	0e 94 5d 0d 	call	0x1aba	; 0x1aba <__udivmodsi4>
     ac6:	e6 2f       	mov	r30, r22
C:\Users\Madalin\AppData\Local\Arduino15\packages\MiniCore\hardware\avr\3.1.2\cores\MCUdude_corefiles/Print.cpp:244
    n /= base;
     ac8:	b9 01       	movw	r22, r18
     aca:	ca 01       	movw	r24, r20
C:\Users\Madalin\AppData\Local\Arduino15\packages\MiniCore\hardware\avr\3.1.2\cores\MCUdude_corefiles/Print.cpp:246

    *--str = c < 10 ? c + '0' : c + 'A' - 10;
     acc:	ea 30       	cpi	r30, 0x0A	; 10
     ace:	04 f5       	brge	.+64     	; 0xb10 <Print::printNumber(unsigned long, unsigned char) [clone .constprop.34]+0x88>
     ad0:	e0 5d       	subi	r30, 0xD0	; 208
     ad2:	d8 01       	movw	r26, r16
     ad4:	ee 93       	st	-X, r30
     ad6:	8d 01       	movw	r16, r26
C:\Users\Madalin\AppData\Local\Arduino15\packages\MiniCore\hardware\avr\3.1.2\cores\MCUdude_corefiles/Print.cpp:247
  } while(n);
     ad8:	23 2b       	or	r18, r19
     ada:	24 2b       	or	r18, r20
     adc:	25 2b       	or	r18, r21
     ade:	79 f7       	brne	.-34     	; 0xabe <Print::printNumber(unsigned long, unsigned char) [clone .constprop.34]+0x36>
C:\Users\Madalin\AppData\Local\Arduino15\packages\MiniCore\hardware\avr\3.1.2\cores\MCUdude_corefiles/Print.h:53
    int getWriteError() { return write_error; }
    void clearWriteError() { setWriteError(0); }

    virtual size_t write(uint8_t) = 0;
    size_t write(const char *str) {
      if (str == NULL) return 0;
     ae0:	90 e0       	ldi	r25, 0x00	; 0
     ae2:	80 e0       	ldi	r24, 0x00	; 0
write():
     ae4:	10 97       	sbiw	r26, 0x00	; 0
     ae6:	29 f0       	breq	.+10     	; 0xaf2 <Print::printNumber(unsigned long, unsigned char) [clone .constprop.34]+0x6a>
     ae8:	bd 01       	movw	r22, r26
     aea:	8a ec       	ldi	r24, 0xCA	; 202
     aec:	93 e0       	ldi	r25, 0x03	; 3
     aee:	0e 94 35 05 	call	0xa6a	; 0xa6a <Print::write(char const*) [clone .part.2]>
printNumber():
C:\Users\Madalin\AppData\Local\Arduino15\packages\MiniCore\hardware\avr\3.1.2\cores\MCUdude_corefiles/Print.cpp:250

  return write(str);
}
     af2:	a1 96       	adiw	r28, 0x21	; 33
     af4:	0f b6       	in	r0, 0x3f	; 63
     af6:	f8 94       	cli
     af8:	de bf       	out	0x3e, r29	; 62
     afa:	0f be       	out	0x3f, r0	; 63
     afc:	cd bf       	out	0x3d, r28	; 61
     afe:	df 91       	pop	r29
     b00:	cf 91       	pop	r28
     b02:	1f 91       	pop	r17
     b04:	0f 91       	pop	r16
     b06:	bf 90       	pop	r11
     b08:	af 90       	pop	r10
     b0a:	9f 90       	pop	r9
     b0c:	8f 90       	pop	r8
     b0e:	08 95       	ret
C:\Users\Madalin\AppData\Local\Arduino15\packages\MiniCore\hardware\avr\3.1.2\cores\MCUdude_corefiles/Print.cpp:246

  do {
    char c = n % base;
    n /= base;

    *--str = c < 10 ? c + '0' : c + 'A' - 10;
     b10:	e9 5c       	subi	r30, 0xC9	; 201
     b12:	df cf       	rjmp	.-66     	; 0xad2 <Print::printNumber(unsigned long, unsigned char) [clone .constprop.34]+0x4a>

00000b14 <Print::print(long, int) [clone .part.3] [clone .constprop.32]>:
_ZN5Print5printEli.part.3():
C:\Users\Madalin\AppData\Local\Arduino15\packages\MiniCore\hardware\avr\3.1.2\cores\MCUdude_corefiles/Print.cpp:87
size_t Print::print(unsigned int n, int base)
{
  return print((unsigned long) n, base);
}

size_t Print::print(long n, int base)
     b14:	cf 92       	push	r12
     b16:	df 92       	push	r13
     b18:	ef 92       	push	r14
     b1a:	ff 92       	push	r15
     b1c:	6b 01       	movw	r12, r22
     b1e:	7c 01       	movw	r14, r24
write():
c:\Users\Madalin\Documents\Arduino\libraries\LiquidCrystal_I2C/LiquidCrystal_I2C.cpp:11

#include "Arduino.h"

#define printIIC(args)	Wire.write(args)
inline size_t LiquidCrystal_I2C::write(uint8_t value) {
	send(value, Rs);
     b20:	41 e0       	ldi	r20, 0x01	; 1
     b22:	6d e2       	ldi	r22, 0x2D	; 45
     b24:	8a ec       	ldi	r24, 0xCA	; 202
     b26:	93 e0       	ldi	r25, 0x03	; 3
     b28:	0e 94 a7 04 	call	0x94e	; 0x94e <LiquidCrystal_I2C::send(unsigned char, unsigned char)>
_ZN5Print5printEli.part.3():
C:\Users\Madalin\AppData\Local\Arduino15\packages\MiniCore\hardware\avr\3.1.2\cores\MCUdude_corefiles/Print.cpp:94
  if (base == 0) {
    return write(n);
  } else if (base == 10) {
    if (n < 0) {
      int t = print('-');
      n = -n;
     b2c:	66 27       	eor	r22, r22
     b2e:	77 27       	eor	r23, r23
     b30:	cb 01       	movw	r24, r22
     b32:	6c 19       	sub	r22, r12
     b34:	7d 09       	sbc	r23, r13
     b36:	8e 09       	sbc	r24, r14
     b38:	9f 09       	sbc	r25, r15
C:\Users\Madalin\AppData\Local\Arduino15\packages\MiniCore\hardware\avr\3.1.2\cores\MCUdude_corefiles/Print.cpp:95
      return printNumber(n, 10) + t;
     b3a:	4a e0       	ldi	r20, 0x0A	; 10
     b3c:	0e 94 44 05 	call	0xa88	; 0xa88 <Print::printNumber(unsigned long, unsigned char) [clone .constprop.34]>
C:\Users\Madalin\AppData\Local\Arduino15\packages\MiniCore\hardware\avr\3.1.2\cores\MCUdude_corefiles/Print.cpp:101
    }
    return printNumber(n, 10);
  } else {
    return printNumber(n, base);
  }
}
     b40:	01 96       	adiw	r24, 0x01	; 1
     b42:	ff 90       	pop	r15
     b44:	ef 90       	pop	r14
     b46:	df 90       	pop	r13
     b48:	cf 90       	pop	r12
     b4a:	08 95       	ret

00000b4c <Print::print(char const*) [clone .constprop.35]>:
write():
C:\Users\Madalin\AppData\Local\Arduino15\packages\MiniCore\hardware\avr\3.1.2\cores\MCUdude_corefiles/Print.cpp:62
size_t Print::print(const String &s)
{
  return write(s.c_str(), s.length());
}

size_t Print::print(const char str[])
     b4c:	bc 01       	movw	r22, r24
     b4e:	8a ec       	ldi	r24, 0xCA	; 202
     b50:	93 e0       	ldi	r25, 0x03	; 3
     b52:	0c 94 35 05 	jmp	0xa6a	; 0xa6a <Print::write(char const*) [clone .part.2]>

00000b56 <Print::println(char const*) [clone .constprop.6]>:
println():
C:\Users\Madalin\AppData\Local\Arduino15\packages\MiniCore\hardware\avr\3.1.2\cores\MCUdude_corefiles/Print.cpp:138
  size_t n = print(s);
  n += println();
  return n;
}

size_t Print::println(const char c[])
     b56:	cf 93       	push	r28
     b58:	df 93       	push	r29
write():
     b5a:	bc 01       	movw	r22, r24
     b5c:	89 ef       	ldi	r24, 0xF9	; 249
     b5e:	92 e0       	ldi	r25, 0x02	; 2
     b60:	0e 94 35 05 	call	0xa6a	; 0xa6a <Print::write(char const*) [clone .part.2]>
     b64:	ec 01       	movw	r28, r24
     b66:	60 e5       	ldi	r22, 0x50	; 80
     b68:	71 e0       	ldi	r23, 0x01	; 1
     b6a:	89 ef       	ldi	r24, 0xF9	; 249
     b6c:	92 e0       	ldi	r25, 0x02	; 2
     b6e:	0e 94 35 05 	call	0xa6a	; 0xa6a <Print::write(char const*) [clone .part.2]>
println():
C:\Users\Madalin\AppData\Local\Arduino15\packages\MiniCore\hardware\avr\3.1.2\cores\MCUdude_corefiles/Print.cpp:143
{
  size_t n = print(c);
  n += println();
  return n;
}
     b72:	8c 0f       	add	r24, r28
     b74:	9d 1f       	adc	r25, r29
     b76:	df 91       	pop	r29
     b78:	cf 91       	pop	r28
     b7a:	08 95       	ret

00000b7c <actualizeazaLCD()>:
actualizeazaLCD():
C:\Users\Madalin\Documents\Arduino\proiect_pm/proiect_pm.ino:158
  incercariGresite = 0;
  sistemBlocat = false;
  resetareSistem();
}

void actualizeazaLCD() {
     b7c:	cf 93       	push	r28
     b7e:	df 93       	push	r29
C:\Users\Madalin\Documents\Arduino\proiect_pm/proiect_pm.ino:159
  lcd.setCursor(0, 1);
     b80:	0e 94 c4 04 	call	0x988	; 0x988 <LiquidCrystal_I2C::setCursor(unsigned char, unsigned char) [clone .constprop.23]>
C:\Users\Madalin\Documents\Arduino\proiect_pm/proiect_pm.ino:160
  for (int i = 0; i < 4; i++) {
     b84:	d0 e0       	ldi	r29, 0x00	; 0
     b86:	c0 e0       	ldi	r28, 0x00	; 0
C:\Users\Madalin\Documents\Arduino\proiect_pm/proiect_pm.ino:161
    if (i < pozitieCifra) lcd.print(" * ");
     b88:	80 91 e9 02 	lds	r24, 0x02E9	; 0x8002e9 <pozitieCifra>
     b8c:	90 91 ea 02 	lds	r25, 0x02EA	; 0x8002ea <pozitieCifra+0x1>
     b90:	c8 17       	cp	r28, r24
     b92:	d9 07       	cpc	r29, r25
     b94:	5c f4       	brge	.+22     	; 0xbac <actualizeazaLCD()+0x30>
     b96:	83 e5       	ldi	r24, 0x53	; 83
     b98:	91 e0       	ldi	r25, 0x01	; 1
C:\Users\Madalin\Documents\Arduino\proiect_pm/proiect_pm.ino:163
    else if (i == pozitieCifra) { lcd.print("["); lcd.print(pinIntrodus[i]); lcd.print("]"); }
    else lcd.print(" _ ");
     b9a:	0e 94 a6 05 	call	0xb4c	; 0xb4c <Print::print(char const*) [clone .constprop.35]>
C:\Users\Madalin\Documents\Arduino\proiect_pm/proiect_pm.ino:160
  resetareSistem();
}

void actualizeazaLCD() {
  lcd.setCursor(0, 1);
  for (int i = 0; i < 4; i++) {
     b9e:	21 96       	adiw	r28, 0x01	; 1
     ba0:	c4 30       	cpi	r28, 0x04	; 4
     ba2:	d1 05       	cpc	r29, r1
     ba4:	89 f7       	brne	.-30     	; 0xb88 <actualizeazaLCD()+0xc>
C:\Users\Madalin\Documents\Arduino\proiect_pm/proiect_pm.ino:165
    if (i < pozitieCifra) lcd.print(" * ");
    else if (i == pozitieCifra) { lcd.print("["); lcd.print(pinIntrodus[i]); lcd.print("]"); }
    else lcd.print(" _ ");
  }
}
     ba6:	df 91       	pop	r29
     ba8:	cf 91       	pop	r28
     baa:	08 95       	ret
C:\Users\Madalin\Documents\Arduino\proiect_pm/proiect_pm.ino:162

void actualizeazaLCD() {
  lcd.setCursor(0, 1);
  for (int i = 0; i < 4; i++) {
    if (i < pozitieCifra) lcd.print(" * ");
    else if (i == pozitieCifra) { lcd.print("["); lcd.print(pinIntrodus[i]); lcd.print("]"); }
     bac:	8c 17       	cp	r24, r28
     bae:	9d 07       	cpc	r25, r29
     bb0:	d1 f4       	brne	.+52     	; 0xbe6 <actualizeazaLCD()+0x6a>
     bb2:	87 e5       	ldi	r24, 0x57	; 87
     bb4:	91 e0       	ldi	r25, 0x01	; 1
     bb6:	0e 94 a6 05 	call	0xb4c	; 0xb4c <Print::print(char const*) [clone .constprop.35]>
     bba:	fe 01       	movw	r30, r28
     bbc:	ee 0f       	add	r30, r30
     bbe:	ff 1f       	adc	r31, r31
     bc0:	ef 51       	subi	r30, 0x1F	; 31
     bc2:	fd 4f       	sbci	r31, 0xFD	; 253
     bc4:	60 81       	ld	r22, Z
     bc6:	71 81       	ldd	r23, Z+1	; 0x01
print():
C:\Users\Madalin\AppData\Local\Arduino15\packages\MiniCore\hardware\avr\3.1.2\cores\MCUdude_corefiles/Print.cpp:79
  return print((unsigned long) b, base);
}

size_t Print::print(int n, int base)
{
  return print((long) n, base);
     bc8:	07 2e       	mov	r0, r23
     bca:	00 0c       	add	r0, r0
     bcc:	88 0b       	sbc	r24, r24
     bce:	99 0b       	sbc	r25, r25
C:\Users\Madalin\AppData\Local\Arduino15\packages\MiniCore\hardware\avr\3.1.2\cores\MCUdude_corefiles/Print.cpp:92
size_t Print::print(long n, int base)
{
  if (base == 0) {
    return write(n);
  } else if (base == 10) {
    if (n < 0) {
     bd0:	97 ff       	sbrs	r25, 7
     bd2:	05 c0       	rjmp	.+10     	; 0xbde <actualizeazaLCD()+0x62>
     bd4:	0e 94 8a 05 	call	0xb14	; 0xb14 <Print::print(long, int) [clone .part.3] [clone .constprop.32]>
actualizeazaLCD():
C:\Users\Madalin\Documents\Arduino\proiect_pm/proiect_pm.ino:162
     bd8:	89 e5       	ldi	r24, 0x59	; 89
     bda:	91 e0       	ldi	r25, 0x01	; 1
     bdc:	de cf       	rjmp	.-68     	; 0xb9a <actualizeazaLCD()+0x1e>
print():
C:\Users\Madalin\AppData\Local\Arduino15\packages\MiniCore\hardware\avr\3.1.2\cores\MCUdude_corefiles/Print.cpp:97
      int t = print('-');
      n = -n;
      return printNumber(n, 10) + t;
    }
    return printNumber(n, 10);
     bde:	4a e0       	ldi	r20, 0x0A	; 10
     be0:	0e 94 44 05 	call	0xa88	; 0xa88 <Print::printNumber(unsigned long, unsigned char) [clone .constprop.34]>
     be4:	f9 cf       	rjmp	.-14     	; 0xbd8 <actualizeazaLCD()+0x5c>
actualizeazaLCD():
C:\Users\Madalin\Documents\Arduino\proiect_pm/proiect_pm.ino:163
    else lcd.print(" _ ");
     be6:	8b e5       	ldi	r24, 0x5B	; 91
     be8:	91 e0       	ldi	r25, 0x01	; 1
     bea:	d7 cf       	rjmp	.-82     	; 0xb9a <actualizeazaLCD()+0x1e>

00000bec <resetareSistem()>:
resetareSistem():
C:\Users\Madalin\Documents\Arduino\proiect_pm/proiect_pm.ino:170
}

void trezireSistem() { timpUltimaApasare = millis(); lcd.backlight(); }

void resetareSistem() {
  for(int i=0; i<4; i++) pinIntrodus[i] = 0;
     bec:	e1 ee       	ldi	r30, 0xE1	; 225
     bee:	f2 e0       	ldi	r31, 0x02	; 2
     bf0:	11 82       	std	Z+1, r1	; 0x01
     bf2:	10 82       	st	Z, r1
     bf4:	13 82       	std	Z+3, r1	; 0x03
     bf6:	12 82       	std	Z+2, r1	; 0x02
     bf8:	15 82       	std	Z+5, r1	; 0x05
     bfa:	14 82       	std	Z+4, r1	; 0x04
     bfc:	17 82       	std	Z+7, r1	; 0x07
     bfe:	16 82       	std	Z+6, r1	; 0x06
C:\Users\Madalin\Documents\Arduino\proiect_pm/proiect_pm.ino:171
  pozitieCifra = 0;
     c00:	10 92 ea 02 	sts	0x02EA, r1	; 0x8002ea <pozitieCifra+0x1>
     c04:	10 92 e9 02 	sts	0x02E9, r1	; 0x8002e9 <pozitieCifra>
C:\Users\Madalin\Documents\Arduino\proiect_pm/proiect_pm.ino:172
  setRGB(0, 0, 0);
     c08:	50 e0       	ldi	r21, 0x00	; 0
     c0a:	40 e0       	ldi	r20, 0x00	; 0
     c0c:	70 e0       	ldi	r23, 0x00	; 0
     c0e:	60 e0       	ldi	r22, 0x00	; 0
     c10:	90 e0       	ldi	r25, 0x00	; 0
     c12:	80 e0       	ldi	r24, 0x00	; 0
     c14:	0e 94 04 05 	call	0xa08	; 0xa08 <setRGB(int, int, int)>
C:\Users\Madalin\Documents\Arduino\proiect_pm/proiect_pm.ino:173
  lcd.clear(); lcd.print("INTRODU PIN:");
     c18:	0e 94 f7 04 	call	0x9ee	; 0x9ee <LiquidCrystal_I2C::clear() [clone .constprop.21]>
     c1c:	8f e5       	ldi	r24, 0x5F	; 95
     c1e:	91 e0       	ldi	r25, 0x01	; 1
     c20:	0e 94 a6 05 	call	0xb4c	; 0xb4c <Print::print(char const*) [clone .constprop.35]>
C:\Users\Madalin\Documents\Arduino\proiect_pm/proiect_pm.ino:174
  actualizeazaLCD();
     c24:	0c 94 be 05 	jmp	0xb7c	; 0xb7c <actualizeazaLCD()>

00000c28 <deschideUsa()>:
deschideUsa():
C:\Users\Madalin\Documents\Arduino\proiect_pm/proiect_pm.ino:137
  setRGB(0, 255, 0); delay(2000);
  resetareSistem();
}

void deschideUsa() {
  lcd.clear(); lcd.print("DESCHIS");
     c28:	0e 94 f7 04 	call	0x9ee	; 0x9ee <LiquidCrystal_I2C::clear() [clone .constprop.21]>
     c2c:	8c e6       	ldi	r24, 0x6C	; 108
     c2e:	91 e0       	ldi	r25, 0x01	; 1
     c30:	0e 94 a6 05 	call	0xb4c	; 0xb4c <Print::print(char const*) [clone .constprop.35]>
C:\Users\Madalin\Documents\Arduino\proiect_pm/proiect_pm.ino:138
  setRGB(0, 255, 0);
     c34:	50 e0       	ldi	r21, 0x00	; 0
     c36:	40 e0       	ldi	r20, 0x00	; 0
     c38:	6f ef       	ldi	r22, 0xFF	; 255
     c3a:	70 e0       	ldi	r23, 0x00	; 0
     c3c:	90 e0       	ldi	r25, 0x00	; 0
     c3e:	80 e0       	ldi	r24, 0x00	; 0
     c40:	0e 94 04 05 	call	0xa08	; 0xa08 <setRGB(int, int, int)>
C:\Users\Madalin\Documents\Arduino\proiect_pm/proiect_pm.ino:139
  yala.write(90);
     c44:	8a e5       	ldi	r24, 0x5A	; 90
     c46:	90 e0       	ldi	r25, 0x00	; 0
     c48:	0e 94 91 00 	call	0x122	; 0x122 <Servo::write(int) [clone .constprop.18]>
C:\Users\Madalin\Documents\Arduino\proiect_pm/proiect_pm.ino:140
  delay(5000);
     c4c:	68 e8       	ldi	r22, 0x88	; 136
     c4e:	73 e1       	ldi	r23, 0x13	; 19
     c50:	80 e0       	ldi	r24, 0x00	; 0
     c52:	90 e0       	ldi	r25, 0x00	; 0
     c54:	0e 94 34 02 	call	0x468	; 0x468 <delay>
C:\Users\Madalin\Documents\Arduino\proiect_pm/proiect_pm.ino:141
  yala.write(0);
     c58:	90 e0       	ldi	r25, 0x00	; 0
     c5a:	80 e0       	ldi	r24, 0x00	; 0
     c5c:	0e 94 91 00 	call	0x122	; 0x122 <Servo::write(int) [clone .constprop.18]>
C:\Users\Madalin\Documents\Arduino\proiect_pm/proiect_pm.ino:142
  resetareSistem();
     c60:	0c 94 f6 05 	jmp	0xbec	; 0xbec <resetareSistem()>

00000c64 <blocheazaSistem(int)>:
blocheazaSistem():
C:\Users\Madalin\Documents\Arduino\proiect_pm/proiect_pm.ino:145
}

void blocheazaSistem(int secunde) {
     c64:	cf 92       	push	r12
     c66:	df 92       	push	r13
     c68:	ef 92       	push	r14
     c6a:	ff 92       	push	r15
     c6c:	cf 93       	push	r28
     c6e:	df 93       	push	r29
     c70:	ec 01       	movw	r28, r24
C:\Users\Madalin\Documents\Arduino\proiect_pm/proiect_pm.ino:146
  sistemBlocat = true;
     c72:	81 e0       	ldi	r24, 0x01	; 1
     c74:	80 93 ef 02 	sts	0x02EF, r24	; 0x8002ef <sistemBlocat>
     c78:	6e 01       	movw	r12, r28
     c7a:	0d 2e       	mov	r0, r29
     c7c:	00 0c       	add	r0, r0
     c7e:	ee 08       	sbc	r14, r14
     c80:	ff 08       	sbc	r15, r15
C:\Users\Madalin\Documents\Arduino\proiect_pm/proiect_pm.ino:148
  for (int i = secunde; i > 0; i--) {
    lcd.clear();
     c82:	0e 94 f7 04 	call	0x9ee	; 0x9ee <LiquidCrystal_I2C::clear() [clone .constprop.21]>
C:\Users\Madalin\Documents\Arduino\proiect_pm/proiect_pm.ino:149
    lcd.print("BLOCAT: "); lcd.print(i); lcd.print("s");
     c86:	84 e7       	ldi	r24, 0x74	; 116
     c88:	91 e0       	ldi	r25, 0x01	; 1
     c8a:	0e 94 a6 05 	call	0xb4c	; 0xb4c <Print::print(char const*) [clone .constprop.35]>
print():
C:\Users\Madalin\AppData\Local\Arduino15\packages\MiniCore\hardware\avr\3.1.2\cores\MCUdude_corefiles/Print.cpp:97
     c8e:	4a e0       	ldi	r20, 0x0A	; 10
     c90:	c7 01       	movw	r24, r14
     c92:	b6 01       	movw	r22, r12
     c94:	0e 94 44 05 	call	0xa88	; 0xa88 <Print::printNumber(unsigned long, unsigned char) [clone .constprop.34]>
blocheazaSistem():
C:\Users\Madalin\Documents\Arduino\proiect_pm/proiect_pm.ino:149
     c98:	8d e7       	ldi	r24, 0x7D	; 125
     c9a:	91 e0       	ldi	r25, 0x01	; 1
     c9c:	0e 94 a6 05 	call	0xb4c	; 0xb4c <Print::print(char const*) [clone .constprop.35]>
C:\Users\Madalin\Documents\Arduino\proiect_pm/proiect_pm.ino:150
    setRGB(255, 0, 0);
     ca0:	50 e0       	ldi	r21, 0x00	; 0
     ca2:	40 e0       	ldi	r20, 0x00	; 0
     ca4:	70 e0       	ldi	r23, 0x00	; 0
     ca6:	60 e0       	ldi	r22, 0x00	; 0
     ca8:	8f ef       	ldi	r24, 0xFF	; 255
     caa:	90 e0       	ldi	r25, 0x00	; 0
     cac:	0e 94 04 05 	call	0xa08	; 0xa08 <setRGB(int, int, int)>
C:\Users\Madalin\Documents\Arduino\proiect_pm/proiect_pm.ino:151
    delay(1000);
     cb0:	68 ee       	ldi	r22, 0xE8	; 232
     cb2:	73 e0       	ldi	r23, 0x03	; 3
     cb4:	80 e0       	ldi	r24, 0x00	; 0
     cb6:	90 e0       	ldi	r25, 0x00	; 0
     cb8:	0e 94 34 02 	call	0x468	; 0x468 <delay>
C:\Users\Madalin\Documents\Arduino\proiect_pm/proiect_pm.ino:147
  resetareSistem();
}

void blocheazaSistem(int secunde) {
  sistemBlocat = true;
  for (int i = secunde; i > 0; i--) {
     cbc:	21 97       	sbiw	r28, 0x01	; 1
     cbe:	81 e0       	ldi	r24, 0x01	; 1
     cc0:	c8 1a       	sub	r12, r24
     cc2:	d1 08       	sbc	r13, r1
     cc4:	e1 08       	sbc	r14, r1
     cc6:	f1 08       	sbc	r15, r1
     cc8:	20 97       	sbiw	r28, 0x00	; 0
     cca:	d9 f6       	brne	.-74     	; 0xc82 <blocheazaSistem(int)+0x1e>
C:\Users\Madalin\Documents\Arduino\proiect_pm/proiect_pm.ino:153
    lcd.clear();
    lcd.print("BLOCAT: "); lcd.print(i); lcd.print("s");
    setRGB(255, 0, 0);
    delay(1000);
  }
  incercariGresite = 0;
     ccc:	10 92 e0 02 	sts	0x02E0, r1	; 0x8002e0 <incercariGresite+0x1>
     cd0:	10 92 df 02 	sts	0x02DF, r1	; 0x8002df <incercariGresite>
C:\Users\Madalin\Documents\Arduino\proiect_pm/proiect_pm.ino:154
  sistemBlocat = false;
     cd4:	10 92 ef 02 	sts	0x02EF, r1	; 0x8002ef <sistemBlocat>
C:\Users\Madalin\Documents\Arduino\proiect_pm/proiect_pm.ino:156
  resetareSistem();
}
     cd8:	df 91       	pop	r29
     cda:	cf 91       	pop	r28
     cdc:	ff 90       	pop	r15
     cde:	ef 90       	pop	r14
     ce0:	df 90       	pop	r13
     ce2:	cf 90       	pop	r12
C:\Users\Madalin\Documents\Arduino\proiect_pm/proiect_pm.ino:155
    setRGB(255, 0, 0);
    delay(1000);
  }
  incercariGresite = 0;
  sistemBlocat = false;
  resetareSistem();
     ce4:	0c 94 f6 05 	jmp	0xbec	; 0xbec <resetareSistem()>

00000ce8 <__vector_16>:
__vector_16():
C:\Users\Madalin\AppData\Local\Arduino15\packages\MiniCore\hardware\avr\3.1.2\cores\MCUdude_corefiles/wiring.c:159
#if defined(__AVR_ATtiny24__) || defined(__AVR_ATtiny44__) || defined(__AVR_ATtiny84__)
ISR(TIM0_OVF_vect)
#else
ISR(TIMER0_OVF_vect)
#endif
{
     ce8:	1f 92       	push	r1
     cea:	0f 92       	push	r0
     cec:	0f b6       	in	r0, 0x3f	; 63
     cee:	0f 92       	push	r0
     cf0:	11 24       	eor	r1, r1
     cf2:	2f 93       	push	r18
     cf4:	3f 93       	push	r19
     cf6:	8f 93       	push	r24
     cf8:	9f 93       	push	r25
     cfa:	af 93       	push	r26
     cfc:	bf 93       	push	r27
C:\Users\Madalin\AppData\Local\Arduino15\packages\MiniCore\hardware\avr\3.1.2\cores\MCUdude_corefiles/wiring.c:167
  static unsigned char timer0_exact = 0;
#endif

  // copy these to local variables so they can be stored in registers
  // (volatile variables must be read from memory on every access, so this saves time)
  unsigned long m = timer0_millis;
     cfe:	80 91 f1 02 	lds	r24, 0x02F1	; 0x8002f1 <timer0_millis>
     d02:	90 91 f2 02 	lds	r25, 0x02F2	; 0x8002f2 <timer0_millis+0x1>
     d06:	a0 91 f3 02 	lds	r26, 0x02F3	; 0x8002f3 <timer0_millis+0x2>
     d0a:	b0 91 f4 02 	lds	r27, 0x02F4	; 0x8002f4 <timer0_millis+0x3>
C:\Users\Madalin\AppData\Local\Arduino15\packages\MiniCore\hardware\avr\3.1.2\cores\MCUdude_corefiles/wiring.c:168
  unsigned char f = timer0_fract;
     d0e:	30 91 f0 02 	lds	r19, 0x02F0	; 0x8002f0 <timer0_fract>
C:\Users\Madalin\AppData\Local\Arduino15\packages\MiniCore\hardware\avr\3.1.2\cores\MCUdude_corefiles/wiring.c:170

  f += FRACT_INC FRACT_INC_PLUS;
     d12:	23 e0       	ldi	r18, 0x03	; 3
     d14:	23 0f       	add	r18, r19
C:\Users\Madalin\AppData\Local\Arduino15\packages\MiniCore\hardware\avr\3.1.2\cores\MCUdude_corefiles/wiring.c:200
    ++f;
  }
#endif
#endif // CORRECT_EXACT_MILLIS

  if (f >= FRACT_MAX) {
     d16:	2d 37       	cpi	r18, 0x7D	; 125
     d18:	68 f1       	brcs	.+90     	; 0xd74 <__vector_16+0x8c>
C:\Users\Madalin\AppData\Local\Arduino15\packages\MiniCore\hardware\avr\3.1.2\cores\MCUdude_corefiles/wiring.c:201
    f -= FRACT_MAX;
     d1a:	26 e8       	ldi	r18, 0x86	; 134
     d1c:	23 0f       	add	r18, r19
C:\Users\Madalin\AppData\Local\Arduino15\packages\MiniCore\hardware\avr\3.1.2\cores\MCUdude_corefiles/wiring.c:202
    m += MILLIS_INC + 1;
     d1e:	02 96       	adiw	r24, 0x02	; 2
     d20:	a1 1d       	adc	r26, r1
     d22:	b1 1d       	adc	r27, r1
C:\Users\Madalin\AppData\Local\Arduino15\packages\MiniCore\hardware\avr\3.1.2\cores\MCUdude_corefiles/wiring.c:208
  }
  else {
    m += MILLIS_INC;
  }

  timer0_fract = f;
     d24:	20 93 f0 02 	sts	0x02F0, r18	; 0x8002f0 <timer0_fract>
C:\Users\Madalin\AppData\Local\Arduino15\packages\MiniCore\hardware\avr\3.1.2\cores\MCUdude_corefiles/wiring.c:209
  timer0_millis = m;
     d28:	80 93 f1 02 	sts	0x02F1, r24	; 0x8002f1 <timer0_millis>
     d2c:	90 93 f2 02 	sts	0x02F2, r25	; 0x8002f2 <timer0_millis+0x1>
     d30:	a0 93 f3 02 	sts	0x02F3, r26	; 0x8002f3 <timer0_millis+0x2>
     d34:	b0 93 f4 02 	sts	0x02F4, r27	; 0x8002f4 <timer0_millis+0x3>
C:\Users\Madalin\AppData\Local\Arduino15\packages\MiniCore\hardware\avr\3.1.2\cores\MCUdude_corefiles/wiring.c:211
#ifndef CORRECT_EXACT_MICROS
  timer0_overflow_count++;
     d38:	80 91 f5 02 	lds	r24, 0x02F5	; 0x8002f5 <timer0_overflow_count>
     d3c:	90 91 f6 02 	lds	r25, 0x02F6	; 0x8002f6 <timer0_overflow_count+0x1>
     d40:	a0 91 f7 02 	lds	r26, 0x02F7	; 0x8002f7 <timer0_overflow_count+0x2>
     d44:	b0 91 f8 02 	lds	r27, 0x02F8	; 0x8002f8 <timer0_overflow_count+0x3>
     d48:	01 96       	adiw	r24, 0x01	; 1
     d4a:	a1 1d       	adc	r26, r1
     d4c:	b1 1d       	adc	r27, r1
     d4e:	80 93 f5 02 	sts	0x02F5, r24	; 0x8002f5 <timer0_overflow_count>
     d52:	90 93 f6 02 	sts	0x02F6, r25	; 0x8002f6 <timer0_overflow_count+0x1>
     d56:	a0 93 f7 02 	sts	0x02F7, r26	; 0x8002f7 <timer0_overflow_count+0x2>
     d5a:	b0 93 f8 02 	sts	0x02F8, r27	; 0x8002f8 <timer0_overflow_count+0x3>
C:\Users\Madalin\AppData\Local\Arduino15\packages\MiniCore\hardware\avr\3.1.2\cores\MCUdude_corefiles/wiring.c:213
#endif
}
     d5e:	bf 91       	pop	r27
     d60:	af 91       	pop	r26
     d62:	9f 91       	pop	r25
     d64:	8f 91       	pop	r24
     d66:	3f 91       	pop	r19
     d68:	2f 91       	pop	r18
     d6a:	0f 90       	pop	r0
     d6c:	0f be       	out	0x3f, r0	; 63
     d6e:	0f 90       	pop	r0
     d70:	1f 90       	pop	r1
     d72:	18 95       	reti
C:\Users\Madalin\AppData\Local\Arduino15\packages\MiniCore\hardware\avr\3.1.2\cores\MCUdude_corefiles/wiring.c:205
  if (f >= FRACT_MAX) {
    f -= FRACT_MAX;
    m += MILLIS_INC + 1;
  }
  else {
    m += MILLIS_INC;
     d74:	01 96       	adiw	r24, 0x01	; 1
     d76:	a1 1d       	adc	r26, r1
     d78:	b1 1d       	adc	r27, r1
     d7a:	d4 cf       	rjmp	.-88     	; 0xd24 <__vector_16+0x3c>

00000d7c <__vector_19>:
__vector_19():
C:\Users\Madalin\AppData\Local\Arduino15\packages\MiniCore\hardware\avr\3.1.2\cores\MCUdude_corefiles/HardwareSerial0.cpp:63
#elif defined(USART0_UDRE_vect)
ISR(USART0_UDRE_vect)
#else
  #error "Don't know what the Data Register Empty vector is called for Serial"
#endif
{
     d7c:	1f 92       	push	r1
     d7e:	0f 92       	push	r0
     d80:	0f b6       	in	r0, 0x3f	; 63
     d82:	0f 92       	push	r0
     d84:	11 24       	eor	r1, r1
     d86:	2f 93       	push	r18
     d88:	3f 93       	push	r19
     d8a:	4f 93       	push	r20
     d8c:	5f 93       	push	r21
     d8e:	6f 93       	push	r22
     d90:	7f 93       	push	r23
     d92:	8f 93       	push	r24
     d94:	9f 93       	push	r25
     d96:	af 93       	push	r26
     d98:	bf 93       	push	r27
     d9a:	ef 93       	push	r30
     d9c:	ff 93       	push	r31
C:\Users\Madalin\AppData\Local\Arduino15\packages\MiniCore\hardware\avr\3.1.2\cores\MCUdude_corefiles/HardwareSerial0.cpp:64
  Serial._tx_udr_empty_irq();
     d9e:	89 ef       	ldi	r24, 0xF9	; 249
     da0:	92 e0       	ldi	r25, 0x02	; 2
     da2:	0e 94 e6 02 	call	0x5cc	; 0x5cc <HardwareSerial::_tx_udr_empty_irq()>
C:\Users\Madalin\AppData\Local\Arduino15\packages\MiniCore\hardware\avr\3.1.2\cores\MCUdude_corefiles/HardwareSerial0.cpp:65
}
     da6:	ff 91       	pop	r31
     da8:	ef 91       	pop	r30
     daa:	bf 91       	pop	r27
     dac:	af 91       	pop	r26
     dae:	9f 91       	pop	r25
     db0:	8f 91       	pop	r24
     db2:	7f 91       	pop	r23
     db4:	6f 91       	pop	r22
     db6:	5f 91       	pop	r21
     db8:	4f 91       	pop	r20
     dba:	3f 91       	pop	r19
     dbc:	2f 91       	pop	r18
     dbe:	0f 90       	pop	r0
     dc0:	0f be       	out	0x3f, r0	; 63
     dc2:	0f 90       	pop	r0
     dc4:	1f 90       	pop	r1
     dc6:	18 95       	reti

00000dc8 <__vector_18>:
__vector_18():
C:\Users\Madalin\AppData\Local\Arduino15\packages\MiniCore\hardware\avr\3.1.2\cores\MCUdude_corefiles/HardwareSerial0.cpp:50
#elif defined(USART_RX_vect)
  ISR(USART_RX_vect)
#else
  #error "Don't know what the Data Received vector is called for Serial"
#endif
  {
     dc8:	1f 92       	push	r1
     dca:	0f 92       	push	r0
     dcc:	0f b6       	in	r0, 0x3f	; 63
     dce:	0f 92       	push	r0
     dd0:	11 24       	eor	r1, r1
     dd2:	2f 93       	push	r18
     dd4:	8f 93       	push	r24
     dd6:	9f 93       	push	r25
     dd8:	ef 93       	push	r30
     dda:	ff 93       	push	r31
_rx_complete_irq():
C:\Users\Madalin\AppData\Local\Arduino15\packages\MiniCore\hardware\avr\3.1.2\cores\MCUdude_corefiles/HardwareSerial_private.h:100

// Actual interrupt handlers //////////////////////////////////////////////////////////////

void HardwareSerial::_rx_complete_irq(void)
{
  if (bit_is_clear(*_ucsra, UPE0)) {
     ddc:	e0 91 09 03 	lds	r30, 0x0309	; 0x800309 <Serial+0x10>
     de0:	f0 91 0a 03 	lds	r31, 0x030A	; 0x80030a <Serial+0x11>
     de4:	80 81       	ld	r24, Z
     de6:	e0 91 0f 03 	lds	r30, 0x030F	; 0x80030f <Serial+0x16>
     dea:	f0 91 10 03 	lds	r31, 0x0310	; 0x800310 <Serial+0x17>
     dee:	82 fd       	sbrc	r24, 2
     df0:	1b c0       	rjmp	.+54     	; 0xe28 <__vector_18+0x60>
C:\Users\Madalin\AppData\Local\Arduino15\packages\MiniCore\hardware\avr\3.1.2\cores\MCUdude_corefiles/HardwareSerial_private.h:103
    // No Parity error, read byte and store it in the buffer if there is
    // room
    unsigned char c = *_udr;
     df2:	90 81       	ld	r25, Z
C:\Users\Madalin\AppData\Local\Arduino15\packages\MiniCore\hardware\avr\3.1.2\cores\MCUdude_corefiles/HardwareSerial_private.h:104
    rx_buffer_index_t i = (unsigned int)(_rx_buffer_head + 1) % SERIAL_RX_BUFFER_SIZE;
     df4:	80 91 12 03 	lds	r24, 0x0312	; 0x800312 <Serial+0x19>
     df8:	8f 5f       	subi	r24, 0xFF	; 255
     dfa:	8f 73       	andi	r24, 0x3F	; 63
C:\Users\Madalin\AppData\Local\Arduino15\packages\MiniCore\hardware\avr\3.1.2\cores\MCUdude_corefiles/HardwareSerial_private.h:110

    // if we should be storing the received character into the location
    // just before the tail (meaning that the head would advance to the
    // current location of the tail), we're about to overflow the buffer
    // and so we don't write the character or advance the head.
    if (i != _rx_buffer_tail) {
     dfc:	20 91 13 03 	lds	r18, 0x0313	; 0x800313 <Serial+0x1a>
     e00:	82 17       	cp	r24, r18
     e02:	41 f0       	breq	.+16     	; 0xe14 <__vector_18+0x4c>
C:\Users\Madalin\AppData\Local\Arduino15\packages\MiniCore\hardware\avr\3.1.2\cores\MCUdude_corefiles/HardwareSerial_private.h:111
      _rx_buffer[_rx_buffer_head] = c;
     e04:	e0 91 12 03 	lds	r30, 0x0312	; 0x800312 <Serial+0x19>
     e08:	f0 e0       	ldi	r31, 0x00	; 0
     e0a:	e7 50       	subi	r30, 0x07	; 7
     e0c:	fd 4f       	sbci	r31, 0xFD	; 253
     e0e:	95 8f       	std	Z+29, r25	; 0x1d
C:\Users\Madalin\AppData\Local\Arduino15\packages\MiniCore\hardware\avr\3.1.2\cores\MCUdude_corefiles/HardwareSerial_private.h:112
      _rx_buffer_head = i;
     e10:	80 93 12 03 	sts	0x0312, r24	; 0x800312 <Serial+0x19>
__vector_18():
C:\Users\Madalin\AppData\Local\Arduino15\packages\MiniCore\hardware\avr\3.1.2\cores\MCUdude_corefiles/HardwareSerial0.cpp:52
    Serial._rx_complete_irq();
  }
     e14:	ff 91       	pop	r31
     e16:	ef 91       	pop	r30
     e18:	9f 91       	pop	r25
     e1a:	8f 91       	pop	r24
     e1c:	2f 91       	pop	r18
     e1e:	0f 90       	pop	r0
     e20:	0f be       	out	0x3f, r0	; 63
     e22:	0f 90       	pop	r0
     e24:	1f 90       	pop	r1
     e26:	18 95       	reti
_rx_complete_irq():
C:\Users\Madalin\AppData\Local\Arduino15\packages\MiniCore\hardware\avr\3.1.2\cores\MCUdude_corefiles/HardwareSerial_private.h:116
    }
  } else {
    // Parity error, read byte but discard it
    *_udr;
     e28:	80 81       	ld	r24, Z
     e2a:	f4 cf       	rjmp	.-24     	; 0xe14 <__vector_18+0x4c>

00000e2c <__vector_11>:
__vector_11():
C:\Users\Madalin\AppData\Local\Arduino15\libraries\Servo\src\avr/Servo.cpp:81

#ifndef WIRING // Wiring pre-defines signal handlers so don't define any if compiling for the Wiring platform
// Interrupt handlers for Arduino
#if defined(_useTimer1)
SIGNAL (TIMER1_COMPA_vect)
{
     e2c:	1f 92       	push	r1
     e2e:	0f 92       	push	r0
     e30:	0f b6       	in	r0, 0x3f	; 63
     e32:	0f 92       	push	r0
     e34:	11 24       	eor	r1, r1
     e36:	2f 93       	push	r18
     e38:	3f 93       	push	r19
     e3a:	4f 93       	push	r20
     e3c:	5f 93       	push	r21
     e3e:	6f 93       	push	r22
     e40:	7f 93       	push	r23
     e42:	8f 93       	push	r24
     e44:	9f 93       	push	r25
     e46:	af 93       	push	r26
     e48:	bf 93       	push	r27
     e4a:	cf 93       	push	r28
     e4c:	df 93       	push	r29
     e4e:	ef 93       	push	r30
     e50:	ff 93       	push	r31
handle_interrupts():
C:\Users\Madalin\AppData\Local\Arduino15\libraries\Servo\src\avr/Servo.cpp:54

/************ static functions common to all instances ***********************/

static inline void handle_interrupts(timer16_Sequence_t timer, volatile uint16_t *TCNTn, volatile uint16_t* OCRnA)
{
  if( Channel[timer] < 0 )
     e52:	80 91 d3 02 	lds	r24, 0x02D3	; 0x8002d3 <Channel>
     e56:	c0 91 c6 03 	lds	r28, 0x03C6	; 0x8003c6 <ServoCount>
     e5a:	d0 e0       	ldi	r29, 0x00	; 0
     e5c:	87 ff       	sbrs	r24, 7
     e5e:	24 c0       	rjmp	.+72     	; 0xea8 <__vector_11+0x7c>
C:\Users\Madalin\AppData\Local\Arduino15\libraries\Servo\src\avr/Servo.cpp:55
    *TCNTn = 0; // channel set to -1 indicated that refresh interval completed so reset the timer
     e60:	10 92 85 00 	sts	0x0085, r1	; 0x800085 <__DATA_REGION_ORIGIN__+0x25>
     e64:	10 92 84 00 	sts	0x0084, r1	; 0x800084 <__DATA_REGION_ORIGIN__+0x24>
C:\Users\Madalin\AppData\Local\Arduino15\libraries\Servo\src\avr/Servo.cpp:61
  else{
    if( SERVO_INDEX(timer,Channel[timer]) < ServoCount && SERVO(timer,Channel[timer]).Pin.isActive == true )
      digitalWrite( SERVO(timer,Channel[timer]).Pin.nbr,LOW); // pulse this channel low if activated
  }

  Channel[timer]++;    // increment to the next channel
     e68:	80 91 d3 02 	lds	r24, 0x02D3	; 0x8002d3 <Channel>
     e6c:	8f 5f       	subi	r24, 0xFF	; 255
     e6e:	80 93 d3 02 	sts	0x02D3, r24	; 0x8002d3 <Channel>
C:\Users\Madalin\AppData\Local\Arduino15\libraries\Servo\src\avr/Servo.cpp:62
  if( SERVO_INDEX(timer,Channel[timer]) < ServoCount && Channel[timer] < SERVOS_PER_TIMER) {
     e72:	80 91 d3 02 	lds	r24, 0x02D3	; 0x8002d3 <Channel>
     e76:	08 2e       	mov	r0, r24
     e78:	00 0c       	add	r0, r0
     e7a:	99 0b       	sbc	r25, r25
     e7c:	8c 17       	cp	r24, r28
     e7e:	9d 07       	cpc	r25, r29
     e80:	24 f4       	brge	.+8      	; 0xe8a <__vector_11+0x5e>
     e82:	80 91 d3 02 	lds	r24, 0x02D3	; 0x8002d3 <Channel>
     e86:	8c 30       	cpi	r24, 0x0C	; 12
     e88:	c4 f1       	brlt	.+112    	; 0xefa <__vector_11+0xce>
C:\Users\Madalin\AppData\Local\Arduino15\libraries\Servo\src\avr/Servo.cpp:69
    if(SERVO(timer,Channel[timer]).Pin.isActive == true)     // check if activated
      digitalWrite( SERVO(timer,Channel[timer]).Pin.nbr,HIGH); // it's an active channel so pulse it high
  }
  else {
    // finished all channels so wait for the refresh period to expire before starting over
    if( ((unsigned)*TCNTn) + 4 < usToTicks(REFRESH_INTERVAL) )  // allow a few ticks to ensure the next OCR1A not missed
     e8a:	80 91 84 00 	lds	r24, 0x0084	; 0x800084 <__DATA_REGION_ORIGIN__+0x24>
     e8e:	90 91 85 00 	lds	r25, 0x0085	; 0x800085 <__DATA_REGION_ORIGIN__+0x25>
     e92:	04 96       	adiw	r24, 0x04	; 4
     e94:	80 34       	cpi	r24, 0x40	; 64
     e96:	9c 49       	sbci	r25, 0x9C	; 156
     e98:	08 f4       	brcc	.+2      	; 0xe9c <__vector_11+0x70>
     e9a:	7a c0       	rjmp	.+244    	; 0xf90 <__vector_11+0x164>
C:\Users\Madalin\AppData\Local\Arduino15\libraries\Servo\src\avr/Servo.cpp:72
      *OCRnA = (unsigned int)usToTicks(REFRESH_INTERVAL);
    else
      *OCRnA = *TCNTn + 4;  // at least REFRESH_INTERVAL has elapsed
     e9c:	80 91 84 00 	lds	r24, 0x0084	; 0x800084 <__DATA_REGION_ORIGIN__+0x24>
     ea0:	90 91 85 00 	lds	r25, 0x0085	; 0x800085 <__DATA_REGION_ORIGIN__+0x25>
     ea4:	04 96       	adiw	r24, 0x04	; 4
     ea6:	76 c0       	rjmp	.+236    	; 0xf94 <__vector_11+0x168>
C:\Users\Madalin\AppData\Local\Arduino15\libraries\Servo\src\avr/Servo.cpp:57
static inline void handle_interrupts(timer16_Sequence_t timer, volatile uint16_t *TCNTn, volatile uint16_t* OCRnA)
{
  if( Channel[timer] < 0 )
    *TCNTn = 0; // channel set to -1 indicated that refresh interval completed so reset the timer
  else{
    if( SERVO_INDEX(timer,Channel[timer]) < ServoCount && SERVO(timer,Channel[timer]).Pin.isActive == true )
     ea8:	80 91 d3 02 	lds	r24, 0x02D3	; 0x8002d3 <Channel>
     eac:	08 2e       	mov	r0, r24
     eae:	00 0c       	add	r0, r0
     eb0:	99 0b       	sbc	r25, r25
     eb2:	8c 17       	cp	r24, r28
     eb4:	9d 07       	cpc	r25, r29
     eb6:	c4 f6       	brge	.-80     	; 0xe68 <__vector_11+0x3c>
     eb8:	e0 91 d3 02 	lds	r30, 0x02D3	; 0x8002d3 <Channel>
     ebc:	8e 2f       	mov	r24, r30
     ebe:	ee 0f       	add	r30, r30
     ec0:	99 0b       	sbc	r25, r25
     ec2:	fc 01       	movw	r30, r24
     ec4:	ee 0f       	add	r30, r30
     ec6:	ff 1f       	adc	r31, r31
     ec8:	e8 0f       	add	r30, r24
     eca:	f9 1f       	adc	r31, r25
     ecc:	ee 55       	subi	r30, 0x5E	; 94
     ece:	fc 4f       	sbci	r31, 0xFC	; 252
     ed0:	80 81       	ld	r24, Z
     ed2:	86 ff       	sbrs	r24, 6
     ed4:	c9 cf       	rjmp	.-110    	; 0xe68 <__vector_11+0x3c>
C:\Users\Madalin\AppData\Local\Arduino15\libraries\Servo\src\avr/Servo.cpp:58
      digitalWrite( SERVO(timer,Channel[timer]).Pin.nbr,LOW); // pulse this channel low if activated
     ed6:	e0 91 d3 02 	lds	r30, 0x02D3	; 0x8002d3 <Channel>
     eda:	8e 2f       	mov	r24, r30
     edc:	ee 0f       	add	r30, r30
     ede:	99 0b       	sbc	r25, r25
     ee0:	fc 01       	movw	r30, r24
     ee2:	ee 0f       	add	r30, r30
     ee4:	ff 1f       	adc	r31, r31
     ee6:	e8 0f       	add	r30, r24
     ee8:	f9 1f       	adc	r31, r25
     eea:	ee 55       	subi	r30, 0x5E	; 94
     eec:	fc 4f       	sbci	r31, 0xFC	; 252
     eee:	80 81       	ld	r24, Z
     ef0:	60 e0       	ldi	r22, 0x00	; 0
     ef2:	8f 73       	andi	r24, 0x3F	; 63
     ef4:	0e 94 48 01 	call	0x290	; 0x290 <digitalWrite>
     ef8:	b7 cf       	rjmp	.-146    	; 0xe68 <__vector_11+0x3c>
C:\Users\Madalin\AppData\Local\Arduino15\libraries\Servo\src\avr/Servo.cpp:63
  }

  Channel[timer]++;    // increment to the next channel
  if( SERVO_INDEX(timer,Channel[timer]) < ServoCount && Channel[timer] < SERVOS_PER_TIMER) {
    *OCRnA = *TCNTn + SERVO(timer,Channel[timer]).ticks;
     efa:	20 91 84 00 	lds	r18, 0x0084	; 0x800084 <__DATA_REGION_ORIGIN__+0x24>
     efe:	30 91 85 00 	lds	r19, 0x0085	; 0x800085 <__DATA_REGION_ORIGIN__+0x25>
     f02:	e0 91 d3 02 	lds	r30, 0x02D3	; 0x8002d3 <Channel>
     f06:	8e 2f       	mov	r24, r30
     f08:	ee 0f       	add	r30, r30
     f0a:	99 0b       	sbc	r25, r25
     f0c:	fc 01       	movw	r30, r24
     f0e:	ee 0f       	add	r30, r30
     f10:	ff 1f       	adc	r31, r31
     f12:	e8 0f       	add	r30, r24
     f14:	f9 1f       	adc	r31, r25
     f16:	ee 55       	subi	r30, 0x5E	; 94
     f18:	fc 4f       	sbci	r31, 0xFC	; 252
     f1a:	81 81       	ldd	r24, Z+1	; 0x01
     f1c:	92 81       	ldd	r25, Z+2	; 0x02
     f1e:	82 0f       	add	r24, r18
     f20:	93 1f       	adc	r25, r19
     f22:	90 93 89 00 	sts	0x0089, r25	; 0x800089 <__DATA_REGION_ORIGIN__+0x29>
     f26:	80 93 88 00 	sts	0x0088, r24	; 0x800088 <__DATA_REGION_ORIGIN__+0x28>
C:\Users\Madalin\AppData\Local\Arduino15\libraries\Servo\src\avr/Servo.cpp:64
    if(SERVO(timer,Channel[timer]).Pin.isActive == true)     // check if activated
     f2a:	e0 91 d3 02 	lds	r30, 0x02D3	; 0x8002d3 <Channel>
     f2e:	8e 2f       	mov	r24, r30
     f30:	ee 0f       	add	r30, r30
     f32:	99 0b       	sbc	r25, r25
     f34:	fc 01       	movw	r30, r24
     f36:	ee 0f       	add	r30, r30
     f38:	ff 1f       	adc	r31, r31
     f3a:	e8 0f       	add	r30, r24
     f3c:	f9 1f       	adc	r31, r25
     f3e:	ee 55       	subi	r30, 0x5E	; 94
     f40:	fc 4f       	sbci	r31, 0xFC	; 252
     f42:	80 81       	ld	r24, Z
     f44:	86 ff       	sbrs	r24, 6
     f46:	11 c0       	rjmp	.+34     	; 0xf6a <__vector_11+0x13e>
C:\Users\Madalin\AppData\Local\Arduino15\libraries\Servo\src\avr/Servo.cpp:65
      digitalWrite( SERVO(timer,Channel[timer]).Pin.nbr,HIGH); // it's an active channel so pulse it high
     f48:	e0 91 d3 02 	lds	r30, 0x02D3	; 0x8002d3 <Channel>
     f4c:	8e 2f       	mov	r24, r30
     f4e:	ee 0f       	add	r30, r30
     f50:	99 0b       	sbc	r25, r25
     f52:	fc 01       	movw	r30, r24
     f54:	ee 0f       	add	r30, r30
     f56:	ff 1f       	adc	r31, r31
     f58:	e8 0f       	add	r30, r24
     f5a:	f9 1f       	adc	r31, r25
     f5c:	ee 55       	subi	r30, 0x5E	; 94
     f5e:	fc 4f       	sbci	r31, 0xFC	; 252
     f60:	80 81       	ld	r24, Z
     f62:	61 e0       	ldi	r22, 0x01	; 1
     f64:	8f 73       	andi	r24, 0x3F	; 63
     f66:	0e 94 48 01 	call	0x290	; 0x290 <digitalWrite>
__vector_11():
C:\Users\Madalin\AppData\Local\Arduino15\libraries\Servo\src\avr/Servo.cpp:83
// Interrupt handlers for Arduino
#if defined(_useTimer1)
SIGNAL (TIMER1_COMPA_vect)
{
  handle_interrupts(_timer1, &TCNT1, &OCR1A);
}
     f6a:	ff 91       	pop	r31
     f6c:	ef 91       	pop	r30
     f6e:	df 91       	pop	r29
     f70:	cf 91       	pop	r28
     f72:	bf 91       	pop	r27
     f74:	af 91       	pop	r26
     f76:	9f 91       	pop	r25
     f78:	8f 91       	pop	r24
     f7a:	7f 91       	pop	r23
     f7c:	6f 91       	pop	r22
     f7e:	5f 91       	pop	r21
     f80:	4f 91       	pop	r20
     f82:	3f 91       	pop	r19
     f84:	2f 91       	pop	r18
     f86:	0f 90       	pop	r0
     f88:	0f be       	out	0x3f, r0	; 63
     f8a:	0f 90       	pop	r0
     f8c:	1f 90       	pop	r1
     f8e:	18 95       	reti
handle_interrupts():
C:\Users\Madalin\AppData\Local\Arduino15\libraries\Servo\src\avr/Servo.cpp:70
      digitalWrite( SERVO(timer,Channel[timer]).Pin.nbr,HIGH); // it's an active channel so pulse it high
  }
  else {
    // finished all channels so wait for the refresh period to expire before starting over
    if( ((unsigned)*TCNTn) + 4 < usToTicks(REFRESH_INTERVAL) )  // allow a few ticks to ensure the next OCR1A not missed
      *OCRnA = (unsigned int)usToTicks(REFRESH_INTERVAL);
     f90:	80 e4       	ldi	r24, 0x40	; 64
     f92:	9c e9       	ldi	r25, 0x9C	; 156
C:\Users\Madalin\AppData\Local\Arduino15\libraries\Servo\src\avr/Servo.cpp:72
    else
      *OCRnA = *TCNTn + 4;  // at least REFRESH_INTERVAL has elapsed
     f94:	90 93 89 00 	sts	0x0089, r25	; 0x800089 <__DATA_REGION_ORIGIN__+0x29>
     f98:	80 93 88 00 	sts	0x0088, r24	; 0x800088 <__DATA_REGION_ORIGIN__+0x28>
C:\Users\Madalin\AppData\Local\Arduino15\libraries\Servo\src\avr/Servo.cpp:73
    Channel[timer] = -1; // this will get incremented at the end of the refresh period to start again at the first channel
     f9c:	8f ef       	ldi	r24, 0xFF	; 255
     f9e:	80 93 d3 02 	sts	0x02D3, r24	; 0x8002d3 <Channel>
     fa2:	e3 cf       	rjmp	.-58     	; 0xf6a <__vector_11+0x13e>

00000fa4 <__vector_24>:
__vector_24():
C:\Users\Madalin\AppData\Local\Arduino15\packages\MiniCore\hardware\avr\3.1.2\libraries\Wire\src\utility/twi.c:534
  }
  return(flag);
}

ISR(TWI_vect)
{
     fa4:	1f 92       	push	r1
     fa6:	0f 92       	push	r0
     fa8:	0f b6       	in	r0, 0x3f	; 63
     faa:	0f 92       	push	r0
     fac:	11 24       	eor	r1, r1
     fae:	2f 93       	push	r18
     fb0:	3f 93       	push	r19
     fb2:	4f 93       	push	r20
     fb4:	5f 93       	push	r21
     fb6:	6f 93       	push	r22
     fb8:	7f 93       	push	r23
     fba:	8f 93       	push	r24
     fbc:	9f 93       	push	r25
     fbe:	af 93       	push	r26
     fc0:	bf 93       	push	r27
     fc2:	ef 93       	push	r30
     fc4:	ff 93       	push	r31
C:\Users\Madalin\AppData\Local\Arduino15\packages\MiniCore\hardware\avr\3.1.2\libraries\Wire\src\utility/twi.c:535
  switch(TW_STATUS){
     fc6:	80 91 b9 00 	lds	r24, 0x00B9	; 0x8000b9 <__DATA_REGION_ORIGIN__+0x59>
     fca:	88 7f       	andi	r24, 0xF8	; 248
     fcc:	80 36       	cpi	r24, 0x60	; 96
     fce:	09 f4       	brne	.+2      	; 0xfd2 <__vector_24+0x2e>
     fd0:	4a c0       	rjmp	.+148    	; 0x1066 <__vector_24+0xc2>
     fd2:	f0 f5       	brcc	.+124    	; 0x1050 <__vector_24+0xac>
     fd4:	88 32       	cpi	r24, 0x28	; 40
     fd6:	09 f4       	brne	.+2      	; 0xfda <__vector_24+0x36>
     fd8:	a7 c0       	rjmp	.+334    	; 0x1128 <__vector_24+0x184>
     fda:	18 f5       	brcc	.+70     	; 0x1022 <__vector_24+0x7e>
     fdc:	80 31       	cpi	r24, 0x10	; 16
     fde:	09 f4       	brne	.+2      	; 0xfe2 <__vector_24+0x3e>
     fe0:	9b c0       	rjmp	.+310    	; 0x1118 <__vector_24+0x174>
     fe2:	b8 f4       	brcc	.+46     	; 0x1012 <__vector_24+0x6e>
     fe4:	88 23       	and	r24, r24
     fe6:	09 f4       	brne	.+2      	; 0xfea <__vector_24+0x46>
     fe8:	05 c1       	rjmp	.+522    	; 0x11f4 <__vector_24+0x250>
     fea:	88 30       	cpi	r24, 0x08	; 8
     fec:	09 f4       	brne	.+2      	; 0xff0 <__vector_24+0x4c>
     fee:	94 c0       	rjmp	.+296    	; 0x1118 <__vector_24+0x174>
C:\Users\Madalin\AppData\Local\Arduino15\packages\MiniCore\hardware\avr\3.1.2\libraries\Wire\src\utility/twi.c:696
    case TW_BUS_ERROR: // bus error, illegal stop/start
      twi_error = TW_BUS_ERROR;
      twi_stop();
      break;
  }
}
     ff0:	ff 91       	pop	r31
     ff2:	ef 91       	pop	r30
     ff4:	bf 91       	pop	r27
     ff6:	af 91       	pop	r26
     ff8:	9f 91       	pop	r25
     ffa:	8f 91       	pop	r24
     ffc:	7f 91       	pop	r23
     ffe:	6f 91       	pop	r22
    1000:	5f 91       	pop	r21
    1002:	4f 91       	pop	r20
    1004:	3f 91       	pop	r19
    1006:	2f 91       	pop	r18
    1008:	0f 90       	pop	r0
    100a:	0f be       	out	0x3f, r0	; 63
    100c:	0f 90       	pop	r0
    100e:	1f 90       	pop	r1
    1010:	18 95       	reti
C:\Users\Madalin\AppData\Local\Arduino15\packages\MiniCore\hardware\avr\3.1.2\libraries\Wire\src\utility/twi.c:535
  return(flag);
}

ISR(TWI_vect)
{
  switch(TW_STATUS){
    1012:	88 31       	cpi	r24, 0x18	; 24
    1014:	09 f4       	brne	.+2      	; 0x1018 <__vector_24+0x74>
    1016:	88 c0       	rjmp	.+272    	; 0x1128 <__vector_24+0x184>
    1018:	80 32       	cpi	r24, 0x20	; 32
    101a:	51 f7       	brne	.-44     	; 0xff0 <__vector_24+0x4c>
C:\Users\Madalin\AppData\Local\Arduino15\packages\MiniCore\hardware\avr\3.1.2\libraries\Wire\src\utility/twi.c:570
    case TW_MT_SLA_NACK:  // address sent, nack received
      twi_error = TW_MT_SLA_NACK;
      twi_stop();
      break;
    case TW_MT_DATA_NACK: // data sent, nack received
      twi_error = TW_MT_DATA_NACK;
    101c:	80 93 b0 02 	sts	0x02B0, r24	; 0x8002b0 <twi_error>
    1020:	14 c0       	rjmp	.+40     	; 0x104a <__vector_24+0xa6>
C:\Users\Madalin\AppData\Local\Arduino15\packages\MiniCore\hardware\avr\3.1.2\libraries\Wire\src\utility/twi.c:535
  return(flag);
}

ISR(TWI_vect)
{
  switch(TW_STATUS){
    1022:	80 34       	cpi	r24, 0x40	; 64
    1024:	09 f4       	brne	.+2      	; 0x1028 <__vector_24+0x84>
    1026:	a5 c0       	rjmp	.+330    	; 0x1172 <__vector_24+0x1ce>
    1028:	40 f4       	brcc	.+16     	; 0x103a <__vector_24+0x96>
    102a:	80 33       	cpi	r24, 0x30	; 48
    102c:	b9 f3       	breq	.-18     	; 0x101c <__vector_24+0x78>
    102e:	88 33       	cpi	r24, 0x38	; 56
    1030:	f9 f6       	brne	.-66     	; 0xff0 <__vector_24+0x4c>
C:\Users\Madalin\AppData\Local\Arduino15\packages\MiniCore\hardware\avr\3.1.2\libraries\Wire\src\utility/twi.c:574
    case TW_MT_DATA_NACK: // data sent, nack received
      twi_error = TW_MT_DATA_NACK;
      twi_stop();
      break;
    case TW_MT_ARB_LOST: // lost bus arbitration
      twi_error = TW_MT_ARB_LOST;
    1032:	80 93 b0 02 	sts	0x02B0, r24	; 0x8002b0 <twi_error>
twi_reply():
C:\Users\Madalin\AppData\Local\Arduino15\packages\MiniCore\hardware\avr\3.1.2\libraries\Wire\src\utility/twi.c:421
 */
void twi_reply(uint8_t ack)
{
  // transmit master read ready signal, with or without ack
  if(ack){
    TWCR = _BV(TWEN) | _BV(TWIE) | _BV(TWINT) | _BV(TWEA);
    1036:	85 ec       	ldi	r24, 0xC5	; 197
    1038:	bc c0       	rjmp	.+376    	; 0x11b2 <__vector_24+0x20e>
__vector_24():
C:\Users\Madalin\AppData\Local\Arduino15\packages\MiniCore\hardware\avr\3.1.2\libraries\Wire\src\utility/twi.c:535
  return(flag);
}

ISR(TWI_vect)
{
  switch(TW_STATUS){
    103a:	80 35       	cpi	r24, 0x50	; 80
    103c:	09 f4       	brne	.+2      	; 0x1040 <__vector_24+0x9c>
    103e:	89 c0       	rjmp	.+274    	; 0x1152 <__vector_24+0x1ae>
    1040:	88 35       	cpi	r24, 0x58	; 88
    1042:	09 f4       	brne	.+2      	; 0x1046 <__vector_24+0xa2>
    1044:	9e c0       	rjmp	.+316    	; 0x1182 <__vector_24+0x1de>
    1046:	88 34       	cpi	r24, 0x48	; 72
    1048:	99 f6       	brne	.-90     	; 0xff0 <__vector_24+0x4c>
C:\Users\Madalin\AppData\Local\Arduino15\packages\MiniCore\hardware\avr\3.1.2\libraries\Wire\src\utility/twi.c:693
    // All
    case TW_NO_INFO:   // no state information
      break;
    case TW_BUS_ERROR: // bus error, illegal stop/start
      twi_error = TW_BUS_ERROR;
      twi_stop();
    104a:	0e 94 76 03 	call	0x6ec	; 0x6ec <twi_stop>
    104e:	d0 cf       	rjmp	.-96     	; 0xff0 <__vector_24+0x4c>
C:\Users\Madalin\AppData\Local\Arduino15\packages\MiniCore\hardware\avr\3.1.2\libraries\Wire\src\utility/twi.c:535
  return(flag);
}

ISR(TWI_vect)
{
  switch(TW_STATUS){
    1050:	88 39       	cpi	r24, 0x98	; 152
    1052:	09 f4       	brne	.+2      	; 0x1056 <__vector_24+0xb2>
    1054:	94 c0       	rjmp	.+296    	; 0x117e <__vector_24+0x1da>
    1056:	38 f5       	brcc	.+78     	; 0x10a6 <__vector_24+0x102>
    1058:	88 37       	cpi	r24, 0x78	; 120
    105a:	29 f0       	breq	.+10     	; 0x1066 <__vector_24+0xc2>
    105c:	50 f4       	brcc	.+20     	; 0x1072 <__vector_24+0xce>
    105e:	88 36       	cpi	r24, 0x68	; 104
    1060:	11 f0       	breq	.+4      	; 0x1066 <__vector_24+0xc2>
    1062:	80 37       	cpi	r24, 0x70	; 112
    1064:	29 f6       	brne	.-118    	; 0xff0 <__vector_24+0x4c>
C:\Users\Madalin\AppData\Local\Arduino15\packages\MiniCore\hardware\avr\3.1.2\libraries\Wire\src\utility/twi.c:616
    case TW_SR_SLA_ACK:   // addressed, returned ack
    case TW_SR_GCALL_ACK: // addressed generally, returned ack
    case TW_SR_ARB_LOST_SLA_ACK:   // lost arbitration, returned ack
    case TW_SR_ARB_LOST_GCALL_ACK: // lost arbitration, returned ack
      // enter slave receiver mode
      twi_state = TWI_SRX;
    1066:	83 e0       	ldi	r24, 0x03	; 3
    1068:	80 93 da 02 	sts	0x02DA, r24	; 0x8002da <twi_state>
C:\Users\Madalin\AppData\Local\Arduino15\packages\MiniCore\hardware\avr\3.1.2\libraries\Wire\src\utility/twi.c:618
      // indicate that rx buffer can be overwritten and ack
      twi_rxBufferIndex = 0;
    106c:	10 92 aa 02 	sts	0x02AA, r1	; 0x8002aa <twi_rxBufferIndex>
    1070:	57 c0       	rjmp	.+174    	; 0x1120 <__vector_24+0x17c>
C:\Users\Madalin\AppData\Local\Arduino15\packages\MiniCore\hardware\avr\3.1.2\libraries\Wire\src\utility/twi.c:535
  return(flag);
}

ISR(TWI_vect)
{
  switch(TW_STATUS){
    1072:	88 38       	cpi	r24, 0x88	; 136
    1074:	09 f4       	brne	.+2      	; 0x1078 <__vector_24+0xd4>
    1076:	83 c0       	rjmp	.+262    	; 0x117e <__vector_24+0x1da>
    1078:	80 39       	cpi	r24, 0x90	; 144
    107a:	19 f0       	breq	.+6      	; 0x1082 <__vector_24+0xde>
    107c:	80 38       	cpi	r24, 0x80	; 128
    107e:	09 f0       	breq	.+2      	; 0x1082 <__vector_24+0xde>
    1080:	b7 cf       	rjmp	.-146    	; 0xff0 <__vector_24+0x4c>
C:\Users\Madalin\AppData\Local\Arduino15\packages\MiniCore\hardware\avr\3.1.2\libraries\Wire\src\utility/twi.c:624
      twi_reply(1);
      break;
    case TW_SR_DATA_ACK:       // data received, returned ack
    case TW_SR_GCALL_DATA_ACK: // data received generally, returned ack
      // if there is still room in the rx buffer
      if(twi_rxBufferIndex < TWI_BUFFER_SIZE){
    1082:	80 91 aa 02 	lds	r24, 0x02AA	; 0x8002aa <twi_rxBufferIndex>
    1086:	80 32       	cpi	r24, 0x20	; 32
    1088:	08 f0       	brcs	.+2      	; 0x108c <__vector_24+0xe8>
    108a:	79 c0       	rjmp	.+242    	; 0x117e <__vector_24+0x1da>
C:\Users\Madalin\AppData\Local\Arduino15\packages\MiniCore\hardware\avr\3.1.2\libraries\Wire\src\utility/twi.c:626
        // put byte in buffer and ack
        twi_rxBuffer[twi_rxBufferIndex++] = TWDR;
    108c:	e0 91 aa 02 	lds	r30, 0x02AA	; 0x8002aa <twi_rxBufferIndex>
    1090:	81 e0       	ldi	r24, 0x01	; 1
    1092:	8e 0f       	add	r24, r30
    1094:	80 93 aa 02 	sts	0x02AA, r24	; 0x8002aa <twi_rxBufferIndex>
    1098:	80 91 bb 00 	lds	r24, 0x00BB	; 0x8000bb <__DATA_REGION_ORIGIN__+0x5b>
    109c:	f0 e0       	ldi	r31, 0x00	; 0
    109e:	e6 57       	subi	r30, 0x76	; 118
    10a0:	fd 4f       	sbci	r31, 0xFD	; 253
    10a2:	80 83       	st	Z, r24
    10a4:	3d c0       	rjmp	.+122    	; 0x1120 <__vector_24+0x17c>
C:\Users\Madalin\AppData\Local\Arduino15\packages\MiniCore\hardware\avr\3.1.2\libraries\Wire\src\utility/twi.c:535
  return(flag);
}

ISR(TWI_vect)
{
  switch(TW_STATUS){
    10a6:	80 3b       	cpi	r24, 0xB0	; 176
    10a8:	39 f0       	breq	.+14     	; 0x10b8 <__vector_24+0x114>
    10aa:	e0 f4       	brcc	.+56     	; 0x10e4 <__vector_24+0x140>
    10ac:	80 3a       	cpi	r24, 0xA0	; 160
    10ae:	09 f4       	brne	.+2      	; 0x10b2 <__vector_24+0x10e>
    10b0:	85 c0       	rjmp	.+266    	; 0x11bc <__vector_24+0x218>
    10b2:	88 3a       	cpi	r24, 0xA8	; 168
    10b4:	09 f0       	breq	.+2      	; 0x10b8 <__vector_24+0x114>
    10b6:	9c cf       	rjmp	.-200    	; 0xff0 <__vector_24+0x4c>
C:\Users\Madalin\AppData\Local\Arduino15\packages\MiniCore\hardware\avr\3.1.2\libraries\Wire\src\utility/twi.c:655

    // Slave Transmitter
    case TW_ST_SLA_ACK:          // addressed, returned ack
    case TW_ST_ARB_LOST_SLA_ACK: // arbitration lost, returned ack
      // enter slave transmitter mode
      twi_state = TWI_STX;
    10b8:	84 e0       	ldi	r24, 0x04	; 4
    10ba:	80 93 da 02 	sts	0x02DA, r24	; 0x8002da <twi_state>
C:\Users\Madalin\AppData\Local\Arduino15\packages\MiniCore\hardware\avr\3.1.2\libraries\Wire\src\utility/twi.c:657
      // ready the tx buffer index for iteration
      twi_txBufferIndex = 0;
    10be:	10 92 89 02 	sts	0x0289, r1	; 0x800289 <twi_txBufferIndex>
C:\Users\Madalin\AppData\Local\Arduino15\packages\MiniCore\hardware\avr\3.1.2\libraries\Wire\src\utility/twi.c:659
      // set tx buffer length to be zero, to verify if user changes it
      twi_txBufferLength = 0;
    10c2:	10 92 88 02 	sts	0x0288, r1	; 0x800288 <twi_txBufferLength>
C:\Users\Madalin\AppData\Local\Arduino15\packages\MiniCore\hardware\avr\3.1.2\libraries\Wire\src\utility/twi.c:662
      // request for txBuffer to be filled and length to be set
      // note: user must call twi_transmit(bytes, length) to do this
      twi_onSlaveTransmit();
    10c6:	e0 91 d6 02 	lds	r30, 0x02D6	; 0x8002d6 <twi_onSlaveTransmit>
    10ca:	f0 91 d7 02 	lds	r31, 0x02D7	; 0x8002d7 <twi_onSlaveTransmit+0x1>
    10ce:	09 95       	icall
C:\Users\Madalin\AppData\Local\Arduino15\packages\MiniCore\hardware\avr\3.1.2\libraries\Wire\src\utility/twi.c:664
      // if they didn't change buffer & length, initialize it
      if(0 == twi_txBufferLength){
    10d0:	80 91 88 02 	lds	r24, 0x0288	; 0x800288 <twi_txBufferLength>
    10d4:	81 11       	cpse	r24, r1
    10d6:	0f c0       	rjmp	.+30     	; 0x10f6 <__vector_24+0x152>
C:\Users\Madalin\AppData\Local\Arduino15\packages\MiniCore\hardware\avr\3.1.2\libraries\Wire\src\utility/twi.c:665
        twi_txBufferLength = 1;
    10d8:	81 e0       	ldi	r24, 0x01	; 1
    10da:	80 93 88 02 	sts	0x0288, r24	; 0x800288 <twi_txBufferLength>
C:\Users\Madalin\AppData\Local\Arduino15\packages\MiniCore\hardware\avr\3.1.2\libraries\Wire\src\utility/twi.c:666
        twi_txBuffer[0] = 0x00;
    10de:	10 92 68 02 	sts	0x0268, r1	; 0x800268 <twi_txBuffer>
    10e2:	09 c0       	rjmp	.+18     	; 0x10f6 <__vector_24+0x152>
C:\Users\Madalin\AppData\Local\Arduino15\packages\MiniCore\hardware\avr\3.1.2\libraries\Wire\src\utility/twi.c:535
  return(flag);
}

ISR(TWI_vect)
{
  switch(TW_STATUS){
    10e4:	80 3c       	cpi	r24, 0xC0	; 192
    10e6:	09 f4       	brne	.+2      	; 0x10ea <__vector_24+0x146>
    10e8:	a6 cf       	rjmp	.-180    	; 0x1036 <__vector_24+0x92>
    10ea:	88 3c       	cpi	r24, 0xC8	; 200
    10ec:	09 f4       	brne	.+2      	; 0x10f0 <__vector_24+0x14c>
    10ee:	a3 cf       	rjmp	.-186    	; 0x1036 <__vector_24+0x92>
    10f0:	88 3b       	cpi	r24, 0xB8	; 184
    10f2:	09 f0       	breq	.+2      	; 0x10f6 <__vector_24+0x152>
    10f4:	7d cf       	rjmp	.-262    	; 0xff0 <__vector_24+0x4c>
C:\Users\Madalin\AppData\Local\Arduino15\packages\MiniCore\hardware\avr\3.1.2\libraries\Wire\src\utility/twi.c:672
      }
      // transmit first byte from buffer, fall
      /* fall through */
    case TW_ST_DATA_ACK: // byte sent, ack returned
      // copy data to output register
      TWDR = twi_txBuffer[twi_txBufferIndex++];
    10f6:	e0 91 89 02 	lds	r30, 0x0289	; 0x800289 <twi_txBufferIndex>
    10fa:	81 e0       	ldi	r24, 0x01	; 1
    10fc:	8e 0f       	add	r24, r30
    10fe:	80 93 89 02 	sts	0x0289, r24	; 0x800289 <twi_txBufferIndex>
    1102:	f0 e0       	ldi	r31, 0x00	; 0
    1104:	e8 59       	subi	r30, 0x98	; 152
    1106:	fd 4f       	sbci	r31, 0xFD	; 253
    1108:	80 81       	ld	r24, Z
    110a:	80 93 bb 00 	sts	0x00BB, r24	; 0x8000bb <__DATA_REGION_ORIGIN__+0x5b>
C:\Users\Madalin\AppData\Local\Arduino15\packages\MiniCore\hardware\avr\3.1.2\libraries\Wire\src\utility/twi.c:674
      // if there is more to send, ack, otherwise nack
      if(twi_txBufferIndex < twi_txBufferLength){
    110e:	90 91 89 02 	lds	r25, 0x0289	; 0x800289 <twi_txBufferIndex>
    1112:	80 91 88 02 	lds	r24, 0x0288	; 0x800288 <twi_txBufferLength>
    1116:	31 c0       	rjmp	.+98     	; 0x117a <__vector_24+0x1d6>
C:\Users\Madalin\AppData\Local\Arduino15\packages\MiniCore\hardware\avr\3.1.2\libraries\Wire\src\utility/twi.c:540
  switch(TW_STATUS){
    // All Master
    case TW_START:     // sent start condition
    case TW_REP_START: // sent repeated start condition
      // copy device address and r/w bit to output register and ack
      TWDR = twi_slarw;
    1118:	80 91 ab 02 	lds	r24, 0x02AB	; 0x8002ab <twi_slarw>
C:\Users\Madalin\AppData\Local\Arduino15\packages\MiniCore\hardware\avr\3.1.2\libraries\Wire\src\utility/twi.c:550
    case TW_MT_SLA_ACK:  // slave receiver acked address
    case TW_MT_DATA_ACK: // slave receiver acked data
      // if there is data to send, send it, otherwise stop
      if(twi_masterBufferIndex < twi_masterBufferLength){
        // copy data to output register and ack
        TWDR = twi_masterBuffer[twi_masterBufferIndex++];
    111c:	80 93 bb 00 	sts	0x00BB, r24	; 0x8000bb <__DATA_REGION_ORIGIN__+0x5b>
twi_reply():
C:\Users\Madalin\AppData\Local\Arduino15\packages\MiniCore\hardware\avr\3.1.2\libraries\Wire\src\utility/twi.c:421
 */
void twi_reply(uint8_t ack)
{
  // transmit master read ready signal, with or without ack
  if(ack){
    TWCR = _BV(TWEN) | _BV(TWIE) | _BV(TWINT) | _BV(TWEA);
    1120:	85 ec       	ldi	r24, 0xC5	; 197
C:\Users\Madalin\AppData\Local\Arduino15\packages\MiniCore\hardware\avr\3.1.2\libraries\Wire\src\utility/twi.c:423
  }else{
    TWCR = _BV(TWEN) | _BV(TWIE) | _BV(TWINT);
    1122:	80 93 bc 00 	sts	0x00BC, r24	; 0x8000bc <__DATA_REGION_ORIGIN__+0x5c>
    1126:	64 cf       	rjmp	.-312    	; 0xff0 <__vector_24+0x4c>
__vector_24():
C:\Users\Madalin\AppData\Local\Arduino15\packages\MiniCore\hardware\avr\3.1.2\libraries\Wire\src\utility/twi.c:548

    // Master Transmitter
    case TW_MT_SLA_ACK:  // slave receiver acked address
    case TW_MT_DATA_ACK: // slave receiver acked data
      // if there is data to send, send it, otherwise stop
      if(twi_masterBufferIndex < twi_masterBufferLength){
    1128:	90 91 ad 02 	lds	r25, 0x02AD	; 0x8002ad <twi_masterBufferIndex>
    112c:	80 91 ac 02 	lds	r24, 0x02AC	; 0x8002ac <twi_masterBufferLength>
    1130:	98 17       	cp	r25, r24
    1132:	b8 f5       	brcc	.+110    	; 0x11a2 <__vector_24+0x1fe>
C:\Users\Madalin\AppData\Local\Arduino15\packages\MiniCore\hardware\avr\3.1.2\libraries\Wire\src\utility/twi.c:550
        // copy data to output register and ack
        TWDR = twi_masterBuffer[twi_masterBufferIndex++];
    1134:	80 91 ae 02 	lds	r24, 0x02AE	; 0x8002ae <twi_masterBuffer>
    1138:	90 91 af 02 	lds	r25, 0x02AF	; 0x8002af <twi_masterBuffer+0x1>
    113c:	e0 91 ad 02 	lds	r30, 0x02AD	; 0x8002ad <twi_masterBufferIndex>
    1140:	21 e0       	ldi	r18, 0x01	; 1
    1142:	2e 0f       	add	r18, r30
    1144:	20 93 ad 02 	sts	0x02AD, r18	; 0x8002ad <twi_masterBufferIndex>
    1148:	e8 0f       	add	r30, r24
    114a:	f9 2f       	mov	r31, r25
    114c:	f1 1d       	adc	r31, r1
    114e:	80 81       	ld	r24, Z
    1150:	e5 cf       	rjmp	.-54     	; 0x111c <__vector_24+0x178>
C:\Users\Madalin\AppData\Local\Arduino15\packages\MiniCore\hardware\avr\3.1.2\libraries\Wire\src\utility/twi.c:581
      break;

    // Master Receiver
    case TW_MR_DATA_ACK: // data received, ack sent
      // put byte into buffer
      twi_masterBuffer[twi_masterBufferIndex++] = TWDR;
    1152:	20 91 ae 02 	lds	r18, 0x02AE	; 0x8002ae <twi_masterBuffer>
    1156:	30 91 af 02 	lds	r19, 0x02AF	; 0x8002af <twi_masterBuffer+0x1>
    115a:	e0 91 ad 02 	lds	r30, 0x02AD	; 0x8002ad <twi_masterBufferIndex>
    115e:	81 e0       	ldi	r24, 0x01	; 1
    1160:	8e 0f       	add	r24, r30
    1162:	80 93 ad 02 	sts	0x02AD, r24	; 0x8002ad <twi_masterBufferIndex>
    1166:	80 91 bb 00 	lds	r24, 0x00BB	; 0x8000bb <__DATA_REGION_ORIGIN__+0x5b>
    116a:	e2 0f       	add	r30, r18
    116c:	f3 2f       	mov	r31, r19
    116e:	f1 1d       	adc	r31, r1
    1170:	80 83       	st	Z, r24
C:\Users\Madalin\AppData\Local\Arduino15\packages\MiniCore\hardware\avr\3.1.2\libraries\Wire\src\utility/twi.c:585
      /* fall through */
    case TW_MR_SLA_ACK:  // address sent, ack received
      // ack if more bytes are expected, otherwise nack
      if(twi_masterBufferIndex < twi_masterBufferLength){
    1172:	90 91 ad 02 	lds	r25, 0x02AD	; 0x8002ad <twi_masterBufferIndex>
    1176:	80 91 ac 02 	lds	r24, 0x02AC	; 0x8002ac <twi_masterBufferLength>
C:\Users\Madalin\AppData\Local\Arduino15\packages\MiniCore\hardware\avr\3.1.2\libraries\Wire\src\utility/twi.c:674
      /* fall through */
    case TW_ST_DATA_ACK: // byte sent, ack returned
      // copy data to output register
      TWDR = twi_txBuffer[twi_txBufferIndex++];
      // if there is more to send, ack, otherwise nack
      if(twi_txBufferIndex < twi_txBufferLength){
    117a:	98 17       	cp	r25, r24
    117c:	88 f2       	brcs	.-94     	; 0x1120 <__vector_24+0x17c>
twi_reply():
C:\Users\Madalin\AppData\Local\Arduino15\packages\MiniCore\hardware\avr\3.1.2\libraries\Wire\src\utility/twi.c:423
{
  // transmit master read ready signal, with or without ack
  if(ack){
    TWCR = _BV(TWEN) | _BV(TWIE) | _BV(TWINT) | _BV(TWEA);
  }else{
    TWCR = _BV(TWEN) | _BV(TWIE) | _BV(TWINT);
    117e:	85 e8       	ldi	r24, 0x85	; 133
    1180:	d0 cf       	rjmp	.-96     	; 0x1122 <__vector_24+0x17e>
__vector_24():
C:\Users\Madalin\AppData\Local\Arduino15\packages\MiniCore\hardware\avr\3.1.2\libraries\Wire\src\utility/twi.c:593
        twi_reply(0);
      }
      break;
    case TW_MR_DATA_NACK: // data received, nack sent
      // put final byte into buffer
      twi_masterBuffer[twi_masterBufferIndex++] = TWDR;
    1182:	20 91 ae 02 	lds	r18, 0x02AE	; 0x8002ae <twi_masterBuffer>
    1186:	30 91 af 02 	lds	r19, 0x02AF	; 0x8002af <twi_masterBuffer+0x1>
    118a:	e0 91 ad 02 	lds	r30, 0x02AD	; 0x8002ad <twi_masterBufferIndex>
    118e:	81 e0       	ldi	r24, 0x01	; 1
    1190:	8e 0f       	add	r24, r30
    1192:	80 93 ad 02 	sts	0x02AD, r24	; 0x8002ad <twi_masterBufferIndex>
    1196:	80 91 bb 00 	lds	r24, 0x00BB	; 0x8000bb <__DATA_REGION_ORIGIN__+0x5b>
    119a:	e2 0f       	add	r30, r18
    119c:	f3 2f       	mov	r31, r19
    119e:	f1 1d       	adc	r31, r1
    11a0:	80 83       	st	Z, r24
C:\Users\Madalin\AppData\Local\Arduino15\packages\MiniCore\hardware\avr\3.1.2\libraries\Wire\src\utility/twi.c:594
  if (twi_sendStop)
    11a2:	80 91 d9 02 	lds	r24, 0x02D9	; 0x8002d9 <twi_sendStop>
    11a6:	81 11       	cpse	r24, r1
    11a8:	50 cf       	rjmp	.-352    	; 0x104a <__vector_24+0xa6>
C:\Users\Madalin\AppData\Local\Arduino15\packages\MiniCore\hardware\avr\3.1.2\libraries\Wire\src\utility/twi.c:597
          twi_stop();
  else {
    twi_inRepStart = true;  // we're going to send the START
    11aa:	81 e0       	ldi	r24, 0x01	; 1
    11ac:	80 93 d8 02 	sts	0x02D8, r24	; 0x8002d8 <twi_inRepStart>
C:\Users\Madalin\AppData\Local\Arduino15\packages\MiniCore\hardware\avr\3.1.2\libraries\Wire\src\utility/twi.c:601
    // don't enable the interrupt. We'll generate the start, but we
    // avoid handling the interrupt until we're in the next transaction,
    // at the point where we would normally issue the start.
    TWCR = _BV(TWINT) | _BV(TWSTA)| _BV(TWEN) ;
    11b0:	84 ea       	ldi	r24, 0xA4	; 164
twi_reply():
C:\Users\Madalin\AppData\Local\Arduino15\packages\MiniCore\hardware\avr\3.1.2\libraries\Wire\src\utility/twi.c:421
 */
void twi_reply(uint8_t ack)
{
  // transmit master read ready signal, with or without ack
  if(ack){
    TWCR = _BV(TWEN) | _BV(TWIE) | _BV(TWINT) | _BV(TWEA);
    11b2:	80 93 bc 00 	sts	0x00BC, r24	; 0x8000bc <__DATA_REGION_ORIGIN__+0x5c>
__vector_24():
C:\Users\Madalin\AppData\Local\Arduino15\packages\MiniCore\hardware\avr\3.1.2\libraries\Wire\src\utility/twi.c:685
    case TW_ST_DATA_NACK: // received nack, we are done
    case TW_ST_LAST_DATA: // received ack, but we are done already!
      // ack future responses
      twi_reply(1);
      // leave slave receiver state
      twi_state = TWI_READY;
    11b6:	10 92 da 02 	sts	0x02DA, r1	; 0x8002da <twi_state>
    11ba:	1a cf       	rjmp	.-460    	; 0xff0 <__vector_24+0x4c>
twi_releaseBus():
C:\Users\Madalin\AppData\Local\Arduino15\packages\MiniCore\hardware\avr\3.1.2\libraries\Wire\src\utility/twi.c:474
 * Output   none
 */
void twi_releaseBus(void)
{
  // release bus
  TWCR = _BV(TWEN) | _BV(TWIE) | _BV(TWEA) | _BV(TWINT);
    11bc:	85 ec       	ldi	r24, 0xC5	; 197
    11be:	80 93 bc 00 	sts	0x00BC, r24	; 0x8000bc <__DATA_REGION_ORIGIN__+0x5c>
C:\Users\Madalin\AppData\Local\Arduino15\packages\MiniCore\hardware\avr\3.1.2\libraries\Wire\src\utility/twi.c:477

  // update twi state
  twi_state = TWI_READY;
    11c2:	10 92 da 02 	sts	0x02DA, r1	; 0x8002da <twi_state>
__vector_24():
C:\Users\Madalin\AppData\Local\Arduino15\packages\MiniCore\hardware\avr\3.1.2\libraries\Wire\src\utility/twi.c:637
      break;
    case TW_SR_STOP: // stop or repeated start condition received
      // ack future responses and leave slave receiver state
      twi_releaseBus();
      // put a null char after data if there's room
      if(twi_rxBufferIndex < TWI_BUFFER_SIZE){
    11c6:	80 91 aa 02 	lds	r24, 0x02AA	; 0x8002aa <twi_rxBufferIndex>
    11ca:	80 32       	cpi	r24, 0x20	; 32
    11cc:	30 f4       	brcc	.+12     	; 0x11da <__vector_24+0x236>
C:\Users\Madalin\AppData\Local\Arduino15\packages\MiniCore\hardware\avr\3.1.2\libraries\Wire\src\utility/twi.c:638
        twi_rxBuffer[twi_rxBufferIndex] = '\0';
    11ce:	e0 91 aa 02 	lds	r30, 0x02AA	; 0x8002aa <twi_rxBufferIndex>
    11d2:	f0 e0       	ldi	r31, 0x00	; 0
    11d4:	e6 57       	subi	r30, 0x76	; 118
    11d6:	fd 4f       	sbci	r31, 0xFD	; 253
    11d8:	10 82       	st	Z, r1
C:\Users\Madalin\AppData\Local\Arduino15\packages\MiniCore\hardware\avr\3.1.2\libraries\Wire\src\utility/twi.c:641
      }
      // callback to user defined callback
      twi_onSlaveReceive(twi_rxBuffer, twi_rxBufferIndex);
    11da:	60 91 aa 02 	lds	r22, 0x02AA	; 0x8002aa <twi_rxBufferIndex>
    11de:	70 e0       	ldi	r23, 0x00	; 0
    11e0:	e0 91 d4 02 	lds	r30, 0x02D4	; 0x8002d4 <twi_onSlaveReceive>
    11e4:	f0 91 d5 02 	lds	r31, 0x02D5	; 0x8002d5 <twi_onSlaveReceive+0x1>
    11e8:	8a e8       	ldi	r24, 0x8A	; 138
    11ea:	92 e0       	ldi	r25, 0x02	; 2
    11ec:	09 95       	icall
C:\Users\Madalin\AppData\Local\Arduino15\packages\MiniCore\hardware\avr\3.1.2\libraries\Wire\src\utility/twi.c:643
      // since we submit rx buffer to "wire" library, we can reset it
      twi_rxBufferIndex = 0;
    11ee:	10 92 aa 02 	sts	0x02AA, r1	; 0x8002aa <twi_rxBufferIndex>
    11f2:	fe ce       	rjmp	.-516    	; 0xff0 <__vector_24+0x4c>
C:\Users\Madalin\AppData\Local\Arduino15\packages\MiniCore\hardware\avr\3.1.2\libraries\Wire\src\utility/twi.c:692

    // All
    case TW_NO_INFO:   // no state information
      break;
    case TW_BUS_ERROR: // bus error, illegal stop/start
      twi_error = TW_BUS_ERROR;
    11f4:	10 92 b0 02 	sts	0x02B0, r1	; 0x8002b0 <twi_error>
    11f8:	28 cf       	rjmp	.-432    	; 0x104a <__vector_24+0xa6>

000011fa <global constructors keyed to 65535_0_proiect_pm.ino.cpp.o.2152>:
_GLOBAL__I_65535_0_proiect_pm.ino.cpp.o.2152():
    11fa:	10 92 fc 02 	sts	0x02FC, r1	; 0x8002fc <Serial+0x3>
    11fe:	10 92 fb 02 	sts	0x02FB, r1	; 0x8002fb <Serial+0x2>
    1202:	88 ee       	ldi	r24, 0xE8	; 232
    1204:	93 e0       	ldi	r25, 0x03	; 3
    1206:	a0 e0       	ldi	r26, 0x00	; 0
    1208:	b0 e0       	ldi	r27, 0x00	; 0
    120a:	80 93 fd 02 	sts	0x02FD, r24	; 0x8002fd <Serial+0x4>
    120e:	90 93 fe 02 	sts	0x02FE, r25	; 0x8002fe <Serial+0x5>
    1212:	a0 93 ff 02 	sts	0x02FF, r26	; 0x8002ff <Serial+0x6>
    1216:	b0 93 00 03 	sts	0x0300, r27	; 0x800300 <Serial+0x7>
    121a:	24 e2       	ldi	r18, 0x24	; 36
    121c:	31 e0       	ldi	r19, 0x01	; 1
    121e:	30 93 fa 02 	sts	0x02FA, r19	; 0x8002fa <Serial+0x1>
    1222:	20 93 f9 02 	sts	0x02F9, r18	; 0x8002f9 <Serial>
    1226:	25 ec       	ldi	r18, 0xC5	; 197
    1228:	30 e0       	ldi	r19, 0x00	; 0
    122a:	30 93 06 03 	sts	0x0306, r19	; 0x800306 <Serial+0xd>
    122e:	20 93 05 03 	sts	0x0305, r18	; 0x800305 <Serial+0xc>
    1232:	24 ec       	ldi	r18, 0xC4	; 196
    1234:	30 e0       	ldi	r19, 0x00	; 0
    1236:	30 93 08 03 	sts	0x0308, r19	; 0x800308 <Serial+0xf>
    123a:	20 93 07 03 	sts	0x0307, r18	; 0x800307 <Serial+0xe>
    123e:	20 ec       	ldi	r18, 0xC0	; 192
    1240:	30 e0       	ldi	r19, 0x00	; 0
    1242:	30 93 0a 03 	sts	0x030A, r19	; 0x80030a <Serial+0x11>
    1246:	20 93 09 03 	sts	0x0309, r18	; 0x800309 <Serial+0x10>
    124a:	21 ec       	ldi	r18, 0xC1	; 193
    124c:	30 e0       	ldi	r19, 0x00	; 0
    124e:	30 93 0c 03 	sts	0x030C, r19	; 0x80030c <Serial+0x13>
    1252:	20 93 0b 03 	sts	0x030B, r18	; 0x80030b <Serial+0x12>
    1256:	22 ec       	ldi	r18, 0xC2	; 194
    1258:	30 e0       	ldi	r19, 0x00	; 0
    125a:	30 93 0e 03 	sts	0x030E, r19	; 0x80030e <Serial+0x15>
    125e:	20 93 0d 03 	sts	0x030D, r18	; 0x80030d <Serial+0x14>
    1262:	26 ec       	ldi	r18, 0xC6	; 198
    1264:	30 e0       	ldi	r19, 0x00	; 0
    1266:	30 93 10 03 	sts	0x0310, r19	; 0x800310 <Serial+0x17>
    126a:	20 93 0f 03 	sts	0x030F, r18	; 0x80030f <Serial+0x16>
    126e:	10 92 12 03 	sts	0x0312, r1	; 0x800312 <Serial+0x19>
    1272:	10 92 13 03 	sts	0x0313, r1	; 0x800313 <Serial+0x1a>
    1276:	10 92 14 03 	sts	0x0314, r1	; 0x800314 <Serial+0x1b>
    127a:	10 92 15 03 	sts	0x0315, r1	; 0x800315 <Serial+0x1c>
    127e:	10 92 99 03 	sts	0x0399, r1	; 0x800399 <Wire+0x3>
    1282:	10 92 98 03 	sts	0x0398, r1	; 0x800398 <Wire+0x2>
    1286:	80 93 9a 03 	sts	0x039A, r24	; 0x80039a <Wire+0x4>
    128a:	90 93 9b 03 	sts	0x039B, r25	; 0x80039b <Wire+0x5>
    128e:	a0 93 9c 03 	sts	0x039C, r26	; 0x80039c <Wire+0x6>
    1292:	b0 93 9d 03 	sts	0x039D, r27	; 0x80039d <Wire+0x7>
    1296:	86 e3       	ldi	r24, 0x36	; 54
    1298:	91 e0       	ldi	r25, 0x01	; 1
    129a:	90 93 97 03 	sts	0x0397, r25	; 0x800397 <Wire+0x1>
    129e:	80 93 96 03 	sts	0x0396, r24	; 0x800396 <Wire>
    12a2:	10 92 cd 03 	sts	0x03CD, r1	; 0x8003cd <lcd+0x3>
    12a6:	10 92 cc 03 	sts	0x03CC, r1	; 0x8003cc <lcd+0x2>
    12aa:	88 e4       	ldi	r24, 0x48	; 72
    12ac:	91 e0       	ldi	r25, 0x01	; 1
    12ae:	90 93 cb 03 	sts	0x03CB, r25	; 0x8003cb <lcd+0x1>
    12b2:	80 93 ca 03 	sts	0x03CA, r24	; 0x8003ca <lcd>
    12b6:	87 e2       	ldi	r24, 0x27	; 39
    12b8:	80 93 ce 03 	sts	0x03CE, r24	; 0x8003ce <lcd+0x4>
    12bc:	80 e1       	ldi	r24, 0x10	; 16
    12be:	80 93 d3 03 	sts	0x03D3, r24	; 0x8003d3 <lcd+0x9>
    12c2:	82 e0       	ldi	r24, 0x02	; 2
    12c4:	80 93 d4 03 	sts	0x03D4, r24	; 0x8003d4 <lcd+0xa>
    12c8:	10 92 d5 03 	sts	0x03D5, r1	; 0x8003d5 <lcd+0xb>
    12cc:	80 91 c6 03 	lds	r24, 0x03C6	; 0x8003c6 <ServoCount>
    12d0:	8c 30       	cpi	r24, 0x0C	; 12
    12d2:	98 f4       	brcc	.+38     	; 0x12fa <global constructors keyed to 65535_0_proiect_pm.ino.cpp.o.2152+0x100>
    12d4:	91 e0       	ldi	r25, 0x01	; 1
    12d6:	98 0f       	add	r25, r24
    12d8:	90 93 c6 03 	sts	0x03C6, r25	; 0x8003c6 <ServoCount>
    12dc:	80 93 c7 03 	sts	0x03C7, r24	; 0x8003c7 <yala>
    12e0:	90 e0       	ldi	r25, 0x00	; 0
    12e2:	fc 01       	movw	r30, r24
    12e4:	ee 0f       	add	r30, r30
    12e6:	ff 1f       	adc	r31, r31
    12e8:	e8 0f       	add	r30, r24
    12ea:	f9 1f       	adc	r31, r25
    12ec:	ee 55       	subi	r30, 0x5E	; 94
    12ee:	fc 4f       	sbci	r31, 0xFC	; 252
    12f0:	88 eb       	ldi	r24, 0xB8	; 184
    12f2:	9b e0       	ldi	r25, 0x0B	; 11
    12f4:	92 83       	std	Z+2, r25	; 0x02
    12f6:	81 83       	std	Z+1, r24	; 0x01
    12f8:	08 95       	ret
    12fa:	8f ef       	ldi	r24, 0xFF	; 255
    12fc:	80 93 c7 03 	sts	0x03C7, r24	; 0x8003c7 <yala>
    1300:	08 95       	ret

00001302 <main>:
init():
C:\Users\Madalin\AppData\Local\Arduino15\packages\MiniCore\hardware\avr\3.1.2\cores\MCUdude_corefiles/wiring.c:945

void init()
{
  // this needs to be called before setup() or some functions won't
  // work there
  sei();
    1302:	78 94       	sei
C:\Users\Madalin\AppData\Local\Arduino15\packages\MiniCore\hardware\avr\3.1.2\cores\MCUdude_corefiles/wiring.c:957

  // On the ATmega168, timer 0 is also used for fast hardware pwm
  // (using phase-correct PWM would mean that timer 0 overflowed half as often
  // resulting in different millis() behavior on the ATmega8 and ATmega168)
#if defined(TCCR0A) && defined(WGM01)
  TCCR0A |= _BV(WGM01) | _BV(WGM00);
    1304:	84 b5       	in	r24, 0x24	; 36
    1306:	83 60       	ori	r24, 0x03	; 3
    1308:	84 bd       	out	0x24, r24	; 36
C:\Users\Madalin\AppData\Local\Arduino15\packages\MiniCore\hardware\avr\3.1.2\cores\MCUdude_corefiles/wiring.c:972
  #if defined(WGM00) && defined(WGM01) // The ATmega8 doesn't have WGM00 and WGM01
    TCCR0 |= _BV(WGM01) | _BV(WGM00);
  #endif
#elif defined(TCCR0B) && defined(CS01) && defined(CS00)
  // This combination is for the standard 168/328/640/1280/1281/2560/2561
  TCCR0B |= _BV(CS01) | _BV(CS00);
    130a:	85 b5       	in	r24, 0x25	; 37
    130c:	83 60       	ori	r24, 0x03	; 3
    130e:	85 bd       	out	0x25, r24	; 37
C:\Users\Madalin\AppData\Local\Arduino15\packages\MiniCore\hardware\avr\3.1.2\cores\MCUdude_corefiles/wiring.c:984

// Enable timer 0 overflow interrupt
#if defined(TIMSK) && defined(TOIE0)
  TIMSK |= _BV(TOIE0);
#elif defined(TIMSK0) && defined(TOIE0)
  TIMSK0 |= _BV(TOIE0);
    1310:	80 91 6e 00 	lds	r24, 0x006E	; 0x80006e <__DATA_REGION_ORIGIN__+0xe>
    1314:	81 60       	ori	r24, 0x01	; 1
    1316:	80 93 6e 00 	sts	0x006E, r24	; 0x80006e <__DATA_REGION_ORIGIN__+0xe>
C:\Users\Madalin\AppData\Local\Arduino15\packages\MiniCore\hardware\avr\3.1.2\cores\MCUdude_corefiles/wiring.c:995
// this is better for motors as it ensures an even waveform
// note, however, that fast pwm mode can achieve a frequency of up
// 8 MHz (with a 16 MHz clock) at 50% duty cycle

#if defined(TCCR1B) && defined(CS11) && defined(CS10)
  TCCR1B = _BV(CS11); // Set timer 1 prescale factor to 64
    131a:	92 e0       	ldi	r25, 0x02	; 2
    131c:	90 93 81 00 	sts	0x0081, r25	; 0x800081 <__DATA_REGION_ORIGIN__+0x21>
C:\Users\Madalin\AppData\Local\Arduino15\packages\MiniCore\hardware\avr\3.1.2\cores\MCUdude_corefiles/wiring.c:997
#if F_CPU >= 8000000L
  TCCR1B |= _BV(CS10);
    1320:	80 91 81 00 	lds	r24, 0x0081	; 0x800081 <__DATA_REGION_ORIGIN__+0x21>
    1324:	81 60       	ori	r24, 0x01	; 1
    1326:	80 93 81 00 	sts	0x0081, r24	; 0x800081 <__DATA_REGION_ORIGIN__+0x21>
C:\Users\Madalin\AppData\Local\Arduino15\packages\MiniCore\hardware\avr\3.1.2\cores\MCUdude_corefiles/wiring.c:1006
#if F_CPU >= 8000000L
  TCCR1 |= _BV(CS10);
#endif
#endif
#if defined(TCCR1A) && defined(WGM10)
  TCCR1A |= _BV(WGM10); // Put timer 1 in 8-bit phase correct pwm mode
    132a:	80 91 80 00 	lds	r24, 0x0080	; 0x800080 <__DATA_REGION_ORIGIN__+0x20>
    132e:	81 60       	ori	r24, 0x01	; 1
    1330:	80 93 80 00 	sts	0x0080, r24	; 0x800080 <__DATA_REGION_ORIGIN__+0x20>
C:\Users\Madalin\AppData\Local\Arduino15\packages\MiniCore\hardware\avr\3.1.2\cores\MCUdude_corefiles/wiring.c:1013

// Set timer 2 prescale factor to 64
#if defined(TCCR2) && defined(CS22)
  TCCR2 |= _BV(CS22);
#elif defined(TCCR2B) && defined(CS22)
  TCCR2B |= _BV(CS22);
    1334:	80 91 b1 00 	lds	r24, 0x00B1	; 0x8000b1 <__DATA_REGION_ORIGIN__+0x51>
    1338:	84 60       	ori	r24, 0x04	; 4
    133a:	80 93 b1 00 	sts	0x00B1, r24	; 0x8000b1 <__DATA_REGION_ORIGIN__+0x51>
C:\Users\Madalin\AppData\Local\Arduino15\packages\MiniCore\hardware\avr\3.1.2\cores\MCUdude_corefiles/wiring.c:1022

// Configure timer 2 for phase correct pwm (8-bit)
#if defined(TCCR2) && defined(WGM20)
  TCCR2 |= _BV(WGM20);
#elif defined(TCCR2A) && defined(WGM20)
  TCCR2A |= _BV(WGM20);
    133e:	80 91 b0 00 	lds	r24, 0x00B0	; 0x8000b0 <__DATA_REGION_ORIGIN__+0x50>
    1342:	81 60       	ori	r24, 0x01	; 1
    1344:	80 93 b0 00 	sts	0x00B0, r24	; 0x8000b0 <__DATA_REGION_ORIGIN__+0x50>
C:\Users\Madalin\AppData\Local\Arduino15\packages\MiniCore\hardware\avr\3.1.2\cores\MCUdude_corefiles/wiring.c:1050
#endif

#if defined(ADCSRA)
  // set a2d prescaler so we are inside the desired 50-200 KHz range.
  #if F_CPU >= 16000000 // 16 MHz / 128 = 125 KHz
    ADCSRA = _BV(ADPS2) | _BV(ADPS1) | _BV(ADPS0) | _BV(ADEN);
    1348:	87 e8       	ldi	r24, 0x87	; 135
    134a:	80 93 7a 00 	sts	0x007A, r24	; 0x80007a <__DATA_REGION_ORIGIN__+0x1a>
C:\Users\Madalin\AppData\Local\Arduino15\packages\MiniCore\hardware\avr\3.1.2\cores\MCUdude_corefiles/wiring.c:1070
  // here so they can be used as normal digital i/o; they will be
  // reconnected in Serial.begin()
#if defined(UCSRB)
  UCSRB = 0;
#elif defined(UCSR0B)
  UCSR0B = 0;
    134e:	10 92 c1 00 	sts	0x00C1, r1	; 0x8000c1 <__DATA_REGION_ORIGIN__+0x61>
begin():
C:\Users\Madalin\AppData\Local\Arduino15\packages\MiniCore\hardware\avr\3.1.2\cores\MCUdude_corefiles/HardwareSerial.cpp:121

void HardwareSerial::begin(unsigned long baud, byte config)
{
  // Try u2x mode first
  uint16_t baud_setting = (F_CPU / 4 / baud - 1) / 2;
  *_ucsra = 1 << U2X0;
    1352:	e0 91 09 03 	lds	r30, 0x0309	; 0x800309 <Serial+0x10>
    1356:	f0 91 0a 03 	lds	r31, 0x030A	; 0x80030a <Serial+0x11>
    135a:	90 83       	st	Z, r25
C:\Users\Madalin\AppData\Local\Arduino15\packages\MiniCore\hardware\avr\3.1.2\cores\MCUdude_corefiles/HardwareSerial.cpp:135
    *_ucsra = 0;
    baud_setting = (F_CPU / 8 / baud - 1) / 2;
  }

  // assign the baud_setting, a.k.a. ubrr (USART Baud Rate Register)
  *_ubrrh = baud_setting >> 8;
    135c:	e0 91 05 03 	lds	r30, 0x0305	; 0x800305 <Serial+0xc>
    1360:	f0 91 06 03 	lds	r31, 0x0306	; 0x800306 <Serial+0xd>
    1364:	10 82       	st	Z, r1
C:\Users\Madalin\AppData\Local\Arduino15\packages\MiniCore\hardware\avr\3.1.2\cores\MCUdude_corefiles/HardwareSerial.cpp:136
  *_ubrrl = baud_setting;
    1366:	e0 91 07 03 	lds	r30, 0x0307	; 0x800307 <Serial+0xe>
    136a:	f0 91 08 03 	lds	r31, 0x0308	; 0x800308 <Serial+0xf>
    136e:	8f ec       	ldi	r24, 0xCF	; 207
    1370:	80 83       	st	Z, r24
C:\Users\Madalin\AppData\Local\Arduino15\packages\MiniCore\hardware\avr\3.1.2\cores\MCUdude_corefiles/HardwareSerial.cpp:138

  _written = false;
    1372:	10 92 11 03 	sts	0x0311, r1	; 0x800311 <Serial+0x18>
C:\Users\Madalin\AppData\Local\Arduino15\packages\MiniCore\hardware\avr\3.1.2\cores\MCUdude_corefiles/HardwareSerial.cpp:146
#if defined(__AVR_ATmega8__) || defined(__AVR_ATmega8515__) || defined(__AVR_ATmega162__) \
|| defined(__AVR_ATmega8535__) || defined(__AVR_ATmega16__)|| defined(__AVR_ATmega32__)   \
|| defined(__AVR_ATmega162__)
  config |= 0x80; // select UCSRC register (shared with UBRRH)
#endif
  *_ucsrc = config;
    1376:	e0 91 0d 03 	lds	r30, 0x030D	; 0x80030d <Serial+0x14>
    137a:	f0 91 0e 03 	lds	r31, 0x030E	; 0x80030e <Serial+0x15>
    137e:	86 e0       	ldi	r24, 0x06	; 6
    1380:	80 83       	st	Z, r24
C:\Users\Madalin\AppData\Local\Arduino15\packages\MiniCore\hardware\avr\3.1.2\cores\MCUdude_corefiles/HardwareSerial.cpp:148
  
  *_ucsrb |= _BV(RXEN0) | _BV(TXEN0) | _BV(RXCIE0);
    1382:	e0 91 0b 03 	lds	r30, 0x030B	; 0x80030b <Serial+0x12>
    1386:	f0 91 0c 03 	lds	r31, 0x030C	; 0x80030c <Serial+0x13>
    138a:	80 81       	ld	r24, Z
    138c:	88 69       	ori	r24, 0x98	; 152
    138e:	80 83       	st	Z, r24
C:\Users\Madalin\AppData\Local\Arduino15\packages\MiniCore\hardware\avr\3.1.2\cores\MCUdude_corefiles/HardwareSerial.cpp:149
  *_ucsrb &= ~_BV(UDRIE0);
    1390:	e0 91 0b 03 	lds	r30, 0x030B	; 0x80030b <Serial+0x12>
    1394:	f0 91 0c 03 	lds	r31, 0x030C	; 0x80030c <Serial+0x13>
    1398:	80 81       	ld	r24, Z
    139a:	8f 7d       	andi	r24, 0xDF	; 223
    139c:	80 83       	st	Z, r24
C:\Users\Madalin\AppData\Local\Arduino15\packages\MiniCore\hardware\avr\3.1.2\libraries\Wire\src/Wire.cpp:61

// Public Methods //////////////////////////////////////////////////////////////

void TwoWire::begin(void)
{
  rxBufferIndex = 0;
    139e:	10 92 de 02 	sts	0x02DE, r1	; 0x8002de <TwoWire::rxBufferIndex>
C:\Users\Madalin\AppData\Local\Arduino15\packages\MiniCore\hardware\avr\3.1.2\libraries\Wire\src/Wire.cpp:62
  rxBufferLength = 0;
    13a2:	10 92 dd 02 	sts	0x02DD, r1	; 0x8002dd <TwoWire::rxBufferLength>
C:\Users\Madalin\AppData\Local\Arduino15\packages\MiniCore\hardware\avr\3.1.2\libraries\Wire\src/Wire.cpp:64

  txBufferIndex = 0;
    13a6:	10 92 dc 02 	sts	0x02DC, r1	; 0x8002dc <TwoWire::txBufferIndex>
C:\Users\Madalin\AppData\Local\Arduino15\packages\MiniCore\hardware\avr\3.1.2\libraries\Wire\src/Wire.cpp:65
  txBufferLength = 0;
    13aa:	10 92 db 02 	sts	0x02DB, r1	; 0x8002db <TwoWire::txBufferLength>
twi_init():
C:\Users\Madalin\AppData\Local\Arduino15\packages\MiniCore\hardware\avr\3.1.2\libraries\Wire\src\utility/twi.c:84
 * Output   none
 */
void twi_init(void)
{
  // initialize state
  twi_state = TWI_READY;
    13ae:	10 92 da 02 	sts	0x02DA, r1	; 0x8002da <twi_state>
C:\Users\Madalin\AppData\Local\Arduino15\packages\MiniCore\hardware\avr\3.1.2\libraries\Wire\src\utility/twi.c:85
  twi_sendStop = true; // default value
    13b2:	81 e0       	ldi	r24, 0x01	; 1
    13b4:	80 93 d9 02 	sts	0x02D9, r24	; 0x8002d9 <twi_sendStop>
C:\Users\Madalin\AppData\Local\Arduino15\packages\MiniCore\hardware\avr\3.1.2\libraries\Wire\src\utility/twi.c:86
  twi_inRepStart = false;
    13b8:	10 92 d8 02 	sts	0x02D8, r1	; 0x8002d8 <twi_inRepStart>
C:\Users\Madalin\AppData\Local\Arduino15\packages\MiniCore\hardware\avr\3.1.2\libraries\Wire\src\utility/twi.c:89

  // activate internal pullups for twi.
  digitalWrite(SDA, 1);
    13bc:	61 e0       	ldi	r22, 0x01	; 1
    13be:	82 e1       	ldi	r24, 0x12	; 18
    13c0:	0e 94 48 01 	call	0x290	; 0x290 <digitalWrite>
C:\Users\Madalin\AppData\Local\Arduino15\packages\MiniCore\hardware\avr\3.1.2\libraries\Wire\src\utility/twi.c:90
  digitalWrite(SCL, 1);
    13c4:	61 e0       	ldi	r22, 0x01	; 1
    13c6:	83 e1       	ldi	r24, 0x13	; 19
    13c8:	0e 94 48 01 	call	0x290	; 0x290 <digitalWrite>
C:\Users\Madalin\AppData\Local\Arduino15\packages\MiniCore\hardware\avr\3.1.2\libraries\Wire\src\utility/twi.c:93

  // initialize twi prescaler and bit rate
  cbi(TWSR, TWPS0);
    13cc:	80 91 b9 00 	lds	r24, 0x00B9	; 0x8000b9 <__DATA_REGION_ORIGIN__+0x59>
    13d0:	8e 7f       	andi	r24, 0xFE	; 254
    13d2:	80 93 b9 00 	sts	0x00B9, r24	; 0x8000b9 <__DATA_REGION_ORIGIN__+0x59>
C:\Users\Madalin\AppData\Local\Arduino15\packages\MiniCore\hardware\avr\3.1.2\libraries\Wire\src\utility/twi.c:94
  cbi(TWSR, TWPS1);
    13d6:	80 91 b9 00 	lds	r24, 0x00B9	; 0x8000b9 <__DATA_REGION_ORIGIN__+0x59>
    13da:	8d 7f       	andi	r24, 0xFD	; 253
    13dc:	80 93 b9 00 	sts	0x00B9, r24	; 0x8000b9 <__DATA_REGION_ORIGIN__+0x59>
C:\Users\Madalin\AppData\Local\Arduino15\packages\MiniCore\hardware\avr\3.1.2\libraries\Wire\src\utility/twi.c:95
  TWBR = ((F_CPU / TWI_FREQ) - 16) / 2;
    13e0:	88 e4       	ldi	r24, 0x48	; 72
    13e2:	80 93 b8 00 	sts	0x00B8, r24	; 0x8000b8 <__DATA_REGION_ORIGIN__+0x58>
C:\Users\Madalin\AppData\Local\Arduino15\packages\MiniCore\hardware\avr\3.1.2\libraries\Wire\src\utility/twi.c:103
  SCL Frequency = CPU Clock Frequency / (16 + (2 * TWBR))
  note: TWBR should be 10 or higher for master mode
  It is 72 for a 16mhz Wiring board with 100kHz TWI */

  // enable twi module, acks, and twi interrupt
  TWCR = _BV(TWEN) | _BV(TWIE) | _BV(TWEA);
    13e6:	85 e4       	ldi	r24, 0x45	; 69
    13e8:	80 93 bc 00 	sts	0x00BC, r24	; 0x8000bc <__DATA_REGION_ORIGIN__+0x5c>
twi_attachSlaveTxEvent():
C:\Users\Madalin\AppData\Local\Arduino15\packages\MiniCore\hardware\avr\3.1.2\libraries\Wire\src\utility/twi.c:408
 * Input    function: callback function to use
 * Output   none
 */
void twi_attachSlaveTxEvent( void (*function)(void) )
{
  twi_onSlaveTransmit = function;
    13ec:	86 e6       	ldi	r24, 0x66	; 102
    13ee:	92 e0       	ldi	r25, 0x02	; 2
    13f0:	90 93 d7 02 	sts	0x02D7, r25	; 0x8002d7 <twi_onSlaveTransmit+0x1>
    13f4:	80 93 d6 02 	sts	0x02D6, r24	; 0x8002d6 <twi_onSlaveTransmit>
twi_attachSlaveRxEvent():
C:\Users\Madalin\AppData\Local\Arduino15\packages\MiniCore\hardware\avr\3.1.2\libraries\Wire\src\utility/twi.c:397
 * Input    function: callback function to use
 * Output   none
 */
void twi_attachSlaveRxEvent( void (*function)(uint8_t*, int) )
{
  twi_onSlaveReceive = function;
    13f8:	87 e6       	ldi	r24, 0x67	; 103
    13fa:	92 e0       	ldi	r25, 0x02	; 2
    13fc:	90 93 d5 02 	sts	0x02D5, r25	; 0x8002d5 <twi_onSlaveReceive+0x1>
    1400:	80 93 d4 02 	sts	0x02D4, r24	; 0x8002d4 <twi_onSlaveReceive>
init_priv():
c:\Users\Madalin\Documents\Arduino\libraries\LiquidCrystal_I2C/LiquidCrystal_I2C.cpp:62
}

void LiquidCrystal_I2C::init_priv()
{
	Wire.begin();
	_displayfunction = LCD_4BITMODE | LCD_1LINE | LCD_5x8DOTS;
    1404:	10 92 cf 03 	sts	0x03CF, r1	; 0x8003cf <lcd+0x5>
c:\Users\Madalin\Documents\Arduino\libraries\LiquidCrystal_I2C/LiquidCrystal_I2C.cpp:63
	begin(_cols, _rows);  
    1408:	80 91 d4 03 	lds	r24, 0x03D4	; 0x8003d4 <lcd+0xa>
begin():
c:\Users\Madalin\Documents\Arduino\libraries\LiquidCrystal_I2C/LiquidCrystal_I2C.cpp:67
}

void LiquidCrystal_I2C::begin(uint8_t cols, uint8_t lines, uint8_t dotsize) {
	if (lines > 1) {
    140c:	82 30       	cpi	r24, 0x02	; 2
    140e:	18 f0       	brcs	.+6      	; 0x1416 <main+0x114>
c:\Users\Madalin\Documents\Arduino\libraries\LiquidCrystal_I2C/LiquidCrystal_I2C.cpp:68
		_displayfunction |= LCD_2LINE;
    1410:	98 e0       	ldi	r25, 0x08	; 8
    1412:	90 93 cf 03 	sts	0x03CF, r25	; 0x8003cf <lcd+0x5>
c:\Users\Madalin\Documents\Arduino\libraries\LiquidCrystal_I2C/LiquidCrystal_I2C.cpp:70
	}
	_numlines = lines;
    1416:	80 93 d2 03 	sts	0x03D2, r24	; 0x8003d2 <lcd+0x8>
c:\Users\Madalin\Documents\Arduino\libraries\LiquidCrystal_I2C/LiquidCrystal_I2C.cpp:80
	}

	// SEE PAGE 45/46 FOR INITIALIZATION SPECIFICATION!
	// according to datasheet, we need at least 40ms after power rises above 2.7V
	// before sending commands. Arduino can turn on way befer 4.5V so we'll wait 50
	delay(50); 
    141a:	62 e3       	ldi	r22, 0x32	; 50
    141c:	70 e0       	ldi	r23, 0x00	; 0
    141e:	80 e0       	ldi	r24, 0x00	; 0
    1420:	90 e0       	ldi	r25, 0x00	; 0
    1422:	0e 94 34 02 	call	0x468	; 0x468 <delay>
c:\Users\Madalin\Documents\Arduino\libraries\LiquidCrystal_I2C/LiquidCrystal_I2C.cpp:83
  
	// Now we pull both RS and R/W low to begin commands
	expanderWrite(_backlightval);	// reset expanderand turn backlight off (Bit 8 =1)
    1426:	60 91 d5 03 	lds	r22, 0x03D5	; 0x8003d5 <lcd+0xb>
    142a:	8a ec       	ldi	r24, 0xCA	; 202
    142c:	93 e0       	ldi	r25, 0x03	; 3
    142e:	0e 94 2d 04 	call	0x85a	; 0x85a <LiquidCrystal_I2C::expanderWrite(unsigned char)>
c:\Users\Madalin\Documents\Arduino\libraries\LiquidCrystal_I2C/LiquidCrystal_I2C.cpp:84
	delay(1000);
    1432:	68 ee       	ldi	r22, 0xE8	; 232
    1434:	73 e0       	ldi	r23, 0x03	; 3
    1436:	80 e0       	ldi	r24, 0x00	; 0
    1438:	90 e0       	ldi	r25, 0x00	; 0
    143a:	0e 94 34 02 	call	0x468	; 0x468 <delay>
c:\Users\Madalin\Documents\Arduino\libraries\LiquidCrystal_I2C/LiquidCrystal_I2C.cpp:91
  	//put the LCD into 4 bit mode
	// this is according to the hitachi HD44780 datasheet
	// figure 24, pg 46
	
	  // we start in 8bit mode, try to set 4 bit mode
   write4bits(0x03 << 4);
    143e:	60 e3       	ldi	r22, 0x30	; 48
    1440:	8a ec       	ldi	r24, 0xCA	; 202
    1442:	93 e0       	ldi	r25, 0x03	; 3
    1444:	0e 94 8b 04 	call	0x916	; 0x916 <LiquidCrystal_I2C::write4bits(unsigned char)>
c:\Users\Madalin\Documents\Arduino\libraries\LiquidCrystal_I2C/LiquidCrystal_I2C.cpp:92
   delayMicroseconds(4500); // wait min 4.1ms
    1448:	84 e9       	ldi	r24, 0x94	; 148
    144a:	91 e1       	ldi	r25, 0x11	; 17
    144c:	0e 94 04 02 	call	0x408	; 0x408 <delayMicroseconds>
c:\Users\Madalin\Documents\Arduino\libraries\LiquidCrystal_I2C/LiquidCrystal_I2C.cpp:95
   
   // second try
   write4bits(0x03 << 4);
    1450:	60 e3       	ldi	r22, 0x30	; 48
    1452:	8a ec       	ldi	r24, 0xCA	; 202
    1454:	93 e0       	ldi	r25, 0x03	; 3
    1456:	0e 94 8b 04 	call	0x916	; 0x916 <LiquidCrystal_I2C::write4bits(unsigned char)>
c:\Users\Madalin\Documents\Arduino\libraries\LiquidCrystal_I2C/LiquidCrystal_I2C.cpp:96
   delayMicroseconds(4500); // wait min 4.1ms
    145a:	84 e9       	ldi	r24, 0x94	; 148
    145c:	91 e1       	ldi	r25, 0x11	; 17
    145e:	0e 94 04 02 	call	0x408	; 0x408 <delayMicroseconds>
c:\Users\Madalin\Documents\Arduino\libraries\LiquidCrystal_I2C/LiquidCrystal_I2C.cpp:99
   
   // third go!
   write4bits(0x03 << 4); 
    1462:	60 e3       	ldi	r22, 0x30	; 48
    1464:	8a ec       	ldi	r24, 0xCA	; 202
    1466:	93 e0       	ldi	r25, 0x03	; 3
    1468:	0e 94 8b 04 	call	0x916	; 0x916 <LiquidCrystal_I2C::write4bits(unsigned char)>
c:\Users\Madalin\Documents\Arduino\libraries\LiquidCrystal_I2C/LiquidCrystal_I2C.cpp:100
   delayMicroseconds(150);
    146c:	86 e9       	ldi	r24, 0x96	; 150
    146e:	90 e0       	ldi	r25, 0x00	; 0
    1470:	0e 94 04 02 	call	0x408	; 0x408 <delayMicroseconds>
c:\Users\Madalin\Documents\Arduino\libraries\LiquidCrystal_I2C/LiquidCrystal_I2C.cpp:103
   
   // finally, set to 4-bit interface
   write4bits(0x02 << 4); 
    1474:	60 e2       	ldi	r22, 0x20	; 32
    1476:	8a ec       	ldi	r24, 0xCA	; 202
    1478:	93 e0       	ldi	r25, 0x03	; 3
    147a:	0e 94 8b 04 	call	0x916	; 0x916 <LiquidCrystal_I2C::write4bits(unsigned char)>
c:\Users\Madalin\Documents\Arduino\libraries\LiquidCrystal_I2C/LiquidCrystal_I2C.cpp:107


	// set # lines, font size, etc.
	command(LCD_FUNCTIONSET | _displayfunction);  
    147e:	60 91 cf 03 	lds	r22, 0x03CF	; 0x8003cf <lcd+0x5>
    1482:	60 62       	ori	r22, 0x20	; 32
command():
c:\Users\Madalin\Documents\Arduino\libraries\LiquidCrystal_I2C/LiquidCrystal_I2C.cpp:233


/*********** mid level commands, for sending data/cmds */

inline void LiquidCrystal_I2C::command(uint8_t value) {
	send(value, 0);
    1484:	40 e0       	ldi	r20, 0x00	; 0
    1486:	8a ec       	ldi	r24, 0xCA	; 202
    1488:	93 e0       	ldi	r25, 0x03	; 3
    148a:	0e 94 a7 04 	call	0x94e	; 0x94e <LiquidCrystal_I2C::send(unsigned char, unsigned char)>
begin():
c:\Users\Madalin\Documents\Arduino\libraries\LiquidCrystal_I2C/LiquidCrystal_I2C.cpp:110

	// set # lines, font size, etc.
	command(LCD_FUNCTIONSET | _displayfunction);  
	
	// turn the display on with no cursor or blinking default
	_displaycontrol = LCD_DISPLAYON | LCD_CURSOROFF | LCD_BLINKOFF;
    148e:	84 e0       	ldi	r24, 0x04	; 4
    1490:	80 93 d0 03 	sts	0x03D0, r24	; 0x8003d0 <lcd+0x6>
command():
c:\Users\Madalin\Documents\Arduino\libraries\LiquidCrystal_I2C/LiquidCrystal_I2C.cpp:233


/*********** mid level commands, for sending data/cmds */

inline void LiquidCrystal_I2C::command(uint8_t value) {
	send(value, 0);
    1494:	40 e0       	ldi	r20, 0x00	; 0
    1496:	6c e0       	ldi	r22, 0x0C	; 12
    1498:	8a ec       	ldi	r24, 0xCA	; 202
    149a:	93 e0       	ldi	r25, 0x03	; 3
    149c:	0e 94 a7 04 	call	0x94e	; 0x94e <LiquidCrystal_I2C::send(unsigned char, unsigned char)>
begin():
c:\Users\Madalin\Documents\Arduino\libraries\LiquidCrystal_I2C/LiquidCrystal_I2C.cpp:114
	// turn the display on with no cursor or blinking default
	_displaycontrol = LCD_DISPLAYON | LCD_CURSOROFF | LCD_BLINKOFF;
	display();
	
	// clear it off
	clear();
    14a0:	0e 94 f7 04 	call	0x9ee	; 0x9ee <LiquidCrystal_I2C::clear() [clone .constprop.21]>
c:\Users\Madalin\Documents\Arduino\libraries\LiquidCrystal_I2C/LiquidCrystal_I2C.cpp:117
	
	// Initialize to default text direction (for roman languages)
	_displaymode = LCD_ENTRYLEFT | LCD_ENTRYSHIFTDECREMENT;
    14a4:	82 e0       	ldi	r24, 0x02	; 2
    14a6:	80 93 d1 03 	sts	0x03D1, r24	; 0x8003d1 <lcd+0x7>
command():
c:\Users\Madalin\Documents\Arduino\libraries\LiquidCrystal_I2C/LiquidCrystal_I2C.cpp:233


/*********** mid level commands, for sending data/cmds */

inline void LiquidCrystal_I2C::command(uint8_t value) {
	send(value, 0);
    14aa:	40 e0       	ldi	r20, 0x00	; 0
    14ac:	66 e0       	ldi	r22, 0x06	; 6
    14ae:	8a ec       	ldi	r24, 0xCA	; 202
    14b0:	93 e0       	ldi	r25, 0x03	; 3
    14b2:	0e 94 a7 04 	call	0x94e	; 0x94e <LiquidCrystal_I2C::send(unsigned char, unsigned char)>
    14b6:	40 e0       	ldi	r20, 0x00	; 0
    14b8:	62 e0       	ldi	r22, 0x02	; 2
    14ba:	8a ec       	ldi	r24, 0xCA	; 202
    14bc:	93 e0       	ldi	r25, 0x03	; 3
    14be:	0e 94 a7 04 	call	0x94e	; 0x94e <LiquidCrystal_I2C::send(unsigned char, unsigned char)>
home():
c:\Users\Madalin\Documents\Arduino\libraries\LiquidCrystal_I2C/LiquidCrystal_I2C.cpp:134
	delayMicroseconds(2000);  // this command takes a long time!
}

void LiquidCrystal_I2C::home(){
	command(LCD_RETURNHOME);  // set cursor position to zero
	delayMicroseconds(2000);  // this command takes a long time!
    14c2:	80 ed       	ldi	r24, 0xD0	; 208
    14c4:	97 e0       	ldi	r25, 0x07	; 7
    14c6:	0e 94 04 02 	call	0x408	; 0x408 <delayMicroseconds>
backlight():
c:\Users\Madalin\Documents\Arduino\libraries\LiquidCrystal_I2C/LiquidCrystal_I2C.cpp:224
	_backlightval=LCD_NOBACKLIGHT;
	expanderWrite(0);
}

void LiquidCrystal_I2C::backlight(void) {
	_backlightval=LCD_BACKLIGHT;
    14ca:	88 e0       	ldi	r24, 0x08	; 8
    14cc:	80 93 d5 03 	sts	0x03D5, r24	; 0x8003d5 <lcd+0xb>
c:\Users\Madalin\Documents\Arduino\libraries\LiquidCrystal_I2C/LiquidCrystal_I2C.cpp:225
	expanderWrite(0);
    14d0:	60 e0       	ldi	r22, 0x00	; 0
    14d2:	8a ec       	ldi	r24, 0xCA	; 202
    14d4:	93 e0       	ldi	r25, 0x03	; 3
    14d6:	0e 94 2d 04 	call	0x85a	; 0x85a <LiquidCrystal_I2C::expanderWrite(unsigned char)>
attach():
C:\Users\Madalin\AppData\Local\Arduino15\libraries\Servo\src\avr/Servo.cpp:240
  return this->attach(pin, MIN_PULSE_WIDTH, MAX_PULSE_WIDTH);
}

uint8_t Servo::attach(int pin, int min, int max)
{
  if(this->servoIndex < MAX_SERVOS ) {
    14da:	80 91 c7 03 	lds	r24, 0x03C7	; 0x8003c7 <yala>
    14de:	8c 30       	cpi	r24, 0x0C	; 12
    14e0:	08 f0       	brcs	.+2      	; 0x14e4 <main+0x1e2>
    14e2:	51 c0       	rjmp	.+162    	; 0x1586 <main+0x284>
C:\Users\Madalin\AppData\Local\Arduino15\libraries\Servo\src\avr/Servo.cpp:241
    pinMode( pin, OUTPUT) ;                                   // set servo pin to output
    14e4:	61 e0       	ldi	r22, 0x01	; 1
    14e6:	89 e0       	ldi	r24, 0x09	; 9
    14e8:	0e 94 76 01 	call	0x2ec	; 0x2ec <pinMode>
C:\Users\Madalin\AppData\Local\Arduino15\libraries\Servo\src\avr/Servo.cpp:242
    servos[this->servoIndex].Pin.nbr = pin;
    14ec:	80 91 c7 03 	lds	r24, 0x03C7	; 0x8003c7 <yala>
    14f0:	28 2f       	mov	r18, r24
    14f2:	30 e0       	ldi	r19, 0x00	; 0
    14f4:	f9 01       	movw	r30, r18
    14f6:	ee 0f       	add	r30, r30
    14f8:	ff 1f       	adc	r31, r31
    14fa:	e2 0f       	add	r30, r18
    14fc:	f3 1f       	adc	r31, r19
    14fe:	ee 55       	subi	r30, 0x5E	; 94
    1500:	fc 4f       	sbci	r31, 0xFC	; 252
    1502:	90 81       	ld	r25, Z
    1504:	90 7c       	andi	r25, 0xC0	; 192
    1506:	99 60       	ori	r25, 0x09	; 9
    1508:	90 83       	st	Z, r25
C:\Users\Madalin\AppData\Local\Arduino15\libraries\Servo\src\avr/Servo.cpp:244
    // todo min/max check: abs(min - MIN_PULSE_WIDTH) /4 < 128
    this->min  = (MIN_PULSE_WIDTH - min)/4; //resolution of min/max is 4 us
    150a:	10 92 c8 03 	sts	0x03C8, r1	; 0x8003c8 <yala+0x1>
C:\Users\Madalin\AppData\Local\Arduino15\libraries\Servo\src\avr/Servo.cpp:245
    this->max  = (MAX_PULSE_WIDTH - max)/4;
    150e:	10 92 c9 03 	sts	0x03C9, r1	; 0x8003c9 <yala+0x2>
C:\Users\Madalin\AppData\Local\Arduino15\libraries\Servo\src\avr/Servo.cpp:247
    // initialize the timer if it has not already been initialized
    timer16_Sequence_t timer = SERVO_INDEX_TO_TIMER(servoIndex);
    1512:	2c e0       	ldi	r18, 0x0C	; 12
    1514:	62 2f       	mov	r22, r18
    1516:	0e 94 8e 0d 	call	0x1b1c	; 0x1b1c <__udivmodqi4>
isTimerActive():
C:\Users\Madalin\AppData\Local\Arduino15\libraries\Servo\src\avr/Servo.cpp:214

static boolean isTimerActive(timer16_Sequence_t timer)
{
  // returns true if any servo is active on this timer
  for(uint8_t channel=0; channel < SERVOS_PER_TIMER; channel++) {
    if(SERVO(timer,channel).Pin.isActive == true)
    151a:	82 9f       	mul	r24, r18
    151c:	b0 01       	movw	r22, r0
    151e:	11 24       	eor	r1, r1
    1520:	30 e0       	ldi	r19, 0x00	; 0
    1522:	20 e0       	ldi	r18, 0x00	; 0
    1524:	ab 01       	movw	r20, r22
    1526:	42 0f       	add	r20, r18
    1528:	53 1f       	adc	r21, r19
    152a:	fa 01       	movw	r30, r20
    152c:	ee 0f       	add	r30, r30
    152e:	ff 1f       	adc	r31, r31
    1530:	e4 0f       	add	r30, r20
    1532:	f5 1f       	adc	r31, r21
    1534:	ee 55       	subi	r30, 0x5E	; 94
    1536:	fc 4f       	sbci	r31, 0xFC	; 252
    1538:	90 81       	ld	r25, Z
    153a:	96 fd       	sbrc	r25, 6
    153c:	16 c0       	rjmp	.+44     	; 0x156a <main+0x268>
    153e:	2f 5f       	subi	r18, 0xFF	; 255
    1540:	3f 4f       	sbci	r19, 0xFF	; 255
C:\Users\Madalin\AppData\Local\Arduino15\libraries\Servo\src\avr/Servo.cpp:213
}

static boolean isTimerActive(timer16_Sequence_t timer)
{
  // returns true if any servo is active on this timer
  for(uint8_t channel=0; channel < SERVOS_PER_TIMER; channel++) {
    1542:	2c 30       	cpi	r18, 0x0C	; 12
    1544:	31 05       	cpc	r19, r1
    1546:	71 f7       	brne	.-36     	; 0x1524 <main+0x222>
initISR():
C:\Users\Madalin\AppData\Local\Arduino15\libraries\Servo\src\avr/Servo.cpp:127


static void initISR(timer16_Sequence_t timer)
{
#if defined (_useTimer1)
  if(timer == _timer1) {
    1548:	81 11       	cpse	r24, r1
    154a:	0f c0       	rjmp	.+30     	; 0x156a <main+0x268>
C:\Users\Madalin\AppData\Local\Arduino15\libraries\Servo\src\avr/Servo.cpp:128
    TCCR1A = 0;             // normal counting mode
    154c:	10 92 80 00 	sts	0x0080, r1	; 0x800080 <__DATA_REGION_ORIGIN__+0x20>
C:\Users\Madalin\AppData\Local\Arduino15\libraries\Servo\src\avr/Servo.cpp:129
    TCCR1B = _BV(CS11);     // set prescaler of 8
    1550:	82 e0       	ldi	r24, 0x02	; 2
    1552:	80 93 81 00 	sts	0x0081, r24	; 0x800081 <__DATA_REGION_ORIGIN__+0x21>
C:\Users\Madalin\AppData\Local\Arduino15\libraries\Servo\src\avr/Servo.cpp:130
    TCNT1 = 0;              // clear the timer count
    1556:	10 92 85 00 	sts	0x0085, r1	; 0x800085 <__DATA_REGION_ORIGIN__+0x25>
    155a:	10 92 84 00 	sts	0x0084, r1	; 0x800084 <__DATA_REGION_ORIGIN__+0x24>
C:\Users\Madalin\AppData\Local\Arduino15\libraries\Servo\src\avr/Servo.cpp:136
#if defined(__AVR_ATmega8__)|| defined(__AVR_ATmega128__)
    TIFR |= _BV(OCF1A);      // clear any pending interrupts
    TIMSK |=  _BV(OCIE1A) ;  // enable the output compare interrupt
#else
    // here if not ATmega8 or ATmega128
    TIFR1 |= _BV(OCF1A);     // clear any pending interrupts
    155e:	b1 9a       	sbi	0x16, 1	; 22
C:\Users\Madalin\AppData\Local\Arduino15\libraries\Servo\src\avr/Servo.cpp:137
    TIMSK1 |=  _BV(OCIE1A) ; // enable the output compare interrupt
    1560:	80 91 6f 00 	lds	r24, 0x006F	; 0x80006f <__DATA_REGION_ORIGIN__+0xf>
    1564:	82 60       	ori	r24, 0x02	; 2
    1566:	80 93 6f 00 	sts	0x006F, r24	; 0x80006f <__DATA_REGION_ORIGIN__+0xf>
attach():
C:\Users\Madalin\AppData\Local\Arduino15\libraries\Servo\src\avr/Servo.cpp:250
    this->max  = (MAX_PULSE_WIDTH - max)/4;
    // initialize the timer if it has not already been initialized
    timer16_Sequence_t timer = SERVO_INDEX_TO_TIMER(servoIndex);
    if(isTimerActive(timer) == false)
      initISR(timer);
    servos[this->servoIndex].Pin.isActive = true;  // this must be set after the check for isTimerActive
    156a:	e0 91 c7 03 	lds	r30, 0x03C7	; 0x8003c7 <yala>
    156e:	8e 2f       	mov	r24, r30
    1570:	90 e0       	ldi	r25, 0x00	; 0
    1572:	fc 01       	movw	r30, r24
    1574:	ee 0f       	add	r30, r30
    1576:	ff 1f       	adc	r31, r31
    1578:	e8 0f       	add	r30, r24
    157a:	f9 1f       	adc	r31, r25
    157c:	ee 55       	subi	r30, 0x5E	; 94
    157e:	fc 4f       	sbci	r31, 0xFC	; 252
    1580:	80 81       	ld	r24, Z
    1582:	80 64       	ori	r24, 0x40	; 64
    1584:	80 83       	st	Z, r24
setup():
C:\Users\Madalin\Documents\Arduino\proiect_pm/proiect_pm.ino:29
void setup() {
  Serial.begin(9600);
  lcd.init();
  lcd.backlight();
  yala.attach(pinServo);
  yala.write(0);
    1586:	90 e0       	ldi	r25, 0x00	; 0
    1588:	80 e0       	ldi	r24, 0x00	; 0
    158a:	0e 94 91 00 	call	0x122	; 0x122 <Servo::write(int) [clone .constprop.18]>
C:\Users\Madalin\Documents\Arduino\proiect_pm/proiect_pm.ino:31
  
  pinMode(pinUP, INPUT_PULLUP);
    158e:	62 e0       	ldi	r22, 0x02	; 2
    1590:	82 e0       	ldi	r24, 0x02	; 2
    1592:	0e 94 76 01 	call	0x2ec	; 0x2ec <pinMode>
C:\Users\Madalin\Documents\Arduino\proiect_pm/proiect_pm.ino:32
  pinMode(pinDOWN, INPUT_PULLUP);
    1596:	62 e0       	ldi	r22, 0x02	; 2
    1598:	83 e0       	ldi	r24, 0x03	; 3
    159a:	0e 94 76 01 	call	0x2ec	; 0x2ec <pinMode>
C:\Users\Madalin\Documents\Arduino\proiect_pm/proiect_pm.ino:33
  pinMode(pinOK, INPUT_PULLUP);
    159e:	62 e0       	ldi	r22, 0x02	; 2
    15a0:	84 e0       	ldi	r24, 0x04	; 4
    15a2:	0e 94 76 01 	call	0x2ec	; 0x2ec <pinMode>
C:\Users\Madalin\Documents\Arduino\proiect_pm/proiect_pm.ino:34
  pinMode(pinChange, INPUT_PULLUP);
    15a6:	62 e0       	ldi	r22, 0x02	; 2
    15a8:	85 e0       	ldi	r24, 0x05	; 5
    15aa:	0e 94 76 01 	call	0x2ec	; 0x2ec <pinMode>
C:\Users\Madalin\Documents\Arduino\proiect_pm/proiect_pm.ino:36
  
  pinMode(ledR, OUTPUT); pinMode(ledG, OUTPUT); pinMode(ledB, OUTPUT);
    15ae:	61 e0       	ldi	r22, 0x01	; 1
    15b0:	8a e0       	ldi	r24, 0x0A	; 10
    15b2:	0e 94 76 01 	call	0x2ec	; 0x2ec <pinMode>
    15b6:	61 e0       	ldi	r22, 0x01	; 1
    15b8:	8b e0       	ldi	r24, 0x0B	; 11
    15ba:	0e 94 76 01 	call	0x2ec	; 0x2ec <pinMode>
    15be:	61 e0       	ldi	r22, 0x01	; 1
    15c0:	8c e0       	ldi	r24, 0x0C	; 12
    15c2:	0e 94 76 01 	call	0x2ec	; 0x2ec <pinMode>
C:\Users\Madalin\Documents\Arduino\proiect_pm/proiect_pm.ino:37
  resetareSistem();
    15c6:	0e 94 f6 05 	call	0xbec	; 0xbec <resetareSistem()>
    15ca:	60 e0       	ldi	r22, 0x00	; 0
    15cc:	e6 2e       	mov	r14, r22
    15ce:	61 e0       	ldi	r22, 0x01	; 1
    15d0:	f6 2e       	mov	r15, r22
loop():
C:\Users\Madalin\Documents\Arduino\proiect_pm/proiect_pm.ino:56
    delay(300);
    schimbaParola();
  }

  if (digitalRead(pinUP) == LOW) { trezireSistem(); pinIntrodus[pozitieCifra]++; if (pinIntrodus[pozitieCifra] > 9) pinIntrodus[pozitieCifra] = 0; actualizeazaLCD(); delay(250); }
  if (digitalRead(pinDOWN) == LOW) { trezireSistem(); pinIntrodus[pozitieCifra]--; if (pinIntrodus[pozitieCifra] < 0) pinIntrodus[pozitieCifra] = 9; actualizeazaLCD(); delay(250); }
    15d2:	c9 e0       	ldi	r28, 0x09	; 9
    15d4:	d0 e0       	ldi	r29, 0x00	; 0
serialEventRun():
C:\Users\Madalin\AppData\Local\Arduino15\packages\MiniCore\hardware\avr\3.1.2\cores\MCUdude_corefiles/HardwareSerial.cpp:67
#endif

void serialEventRun(void)
{
#if defined(HAVE_HWSERIAL0)
  if (Serial0_available && serialEvent && Serial0_available()) serialEvent();
    15d6:	00 e0       	ldi	r16, 0x00	; 0
    15d8:	10 e0       	ldi	r17, 0x00	; 0
loop():
C:\Users\Madalin\Documents\Arduino\proiect_pm/proiect_pm.ino:41
  pinMode(ledR, OUTPUT); pinMode(ledG, OUTPUT); pinMode(ledB, OUTPUT);
  resetareSistem();
}

void loop() {
  if (sistemBlocat) return;
    15da:	80 91 ef 02 	lds	r24, 0x02EF	; 0x8002ef <sistemBlocat>
    15de:	81 11       	cpse	r24, r1
    15e0:	46 c1       	rjmp	.+652    	; 0x186e <main+0x56c>
millis():
C:\Users\Madalin\AppData\Local\Arduino15\packages\MiniCore\hardware\avr\3.1.2\cores\MCUdude_corefiles/wiring.c:218
}

unsigned long millis()
{
  unsigned long m;
  uint8_t oldSREG = SREG;
    15e2:	2f b7       	in	r18, 0x3f	; 63
C:\Users\Madalin\AppData\Local\Arduino15\packages\MiniCore\hardware\avr\3.1.2\cores\MCUdude_corefiles/wiring.c:222

  // disable interrupts while we read timer0_millis or we might get an
  // inconsistent value (e.g. in the middle of a write to timer0_millis)
  cli();
    15e4:	f8 94       	cli
C:\Users\Madalin\AppData\Local\Arduino15\packages\MiniCore\hardware\avr\3.1.2\cores\MCUdude_corefiles/wiring.c:223
  m = timer0_millis;
    15e6:	80 91 f1 02 	lds	r24, 0x02F1	; 0x8002f1 <timer0_millis>
    15ea:	90 91 f2 02 	lds	r25, 0x02F2	; 0x8002f2 <timer0_millis+0x1>
    15ee:	a0 91 f3 02 	lds	r26, 0x02F3	; 0x8002f3 <timer0_millis+0x2>
    15f2:	b0 91 f4 02 	lds	r27, 0x02F4	; 0x8002f4 <timer0_millis+0x3>
C:\Users\Madalin\AppData\Local\Arduino15\packages\MiniCore\hardware\avr\3.1.2\cores\MCUdude_corefiles/wiring.c:224
  SREG = oldSREG;
    15f6:	2f bf       	out	0x3f, r18	; 63
loop():
C:\Users\Madalin\Documents\Arduino\proiect_pm/proiect_pm.ino:43

  if (millis() - timpUltimaApasare > 20000) {
    15f8:	40 91 eb 02 	lds	r20, 0x02EB	; 0x8002eb <timpUltimaApasare>
    15fc:	50 91 ec 02 	lds	r21, 0x02EC	; 0x8002ec <timpUltimaApasare+0x1>
    1600:	60 91 ed 02 	lds	r22, 0x02ED	; 0x8002ed <timpUltimaApasare+0x2>
    1604:	70 91 ee 02 	lds	r23, 0x02EE	; 0x8002ee <timpUltimaApasare+0x3>
    1608:	84 1b       	sub	r24, r20
    160a:	95 0b       	sbc	r25, r21
    160c:	a6 0b       	sbc	r26, r22
    160e:	b7 0b       	sbc	r27, r23
    1610:	81 32       	cpi	r24, 0x21	; 33
    1612:	9e 44       	sbci	r25, 0x4E	; 78
    1614:	a1 05       	cpc	r26, r1
    1616:	b1 05       	cpc	r27, r1
    1618:	78 f0       	brcs	.+30     	; 0x1638 <main+0x336>
noBacklight():
c:\Users\Madalin\Documents\Arduino\libraries\LiquidCrystal_I2C/LiquidCrystal_I2C.cpp:219
	}
}

// Turn the (optional) backlight off/on
void LiquidCrystal_I2C::noBacklight(void) {
	_backlightval=LCD_NOBACKLIGHT;
    161a:	10 92 d5 03 	sts	0x03D5, r1	; 0x8003d5 <lcd+0xb>
c:\Users\Madalin\Documents\Arduino\libraries\LiquidCrystal_I2C/LiquidCrystal_I2C.cpp:220
	expanderWrite(0);
    161e:	60 e0       	ldi	r22, 0x00	; 0
    1620:	8a ec       	ldi	r24, 0xCA	; 202
    1622:	93 e0       	ldi	r25, 0x03	; 3
    1624:	0e 94 2d 04 	call	0x85a	; 0x85a <LiquidCrystal_I2C::expanderWrite(unsigned char)>
loop():
C:\Users\Madalin\Documents\Arduino\proiect_pm/proiect_pm.ino:45
    lcd.noBacklight();
    setRGB(0, 0, 0);
    1628:	50 e0       	ldi	r21, 0x00	; 0
    162a:	40 e0       	ldi	r20, 0x00	; 0
    162c:	70 e0       	ldi	r23, 0x00	; 0
    162e:	60 e0       	ldi	r22, 0x00	; 0
    1630:	90 e0       	ldi	r25, 0x00	; 0
    1632:	80 e0       	ldi	r24, 0x00	; 0
    1634:	0e 94 04 05 	call	0xa08	; 0xa08 <setRGB(int, int, int)>
C:\Users\Madalin\Documents\Arduino\proiect_pm/proiect_pm.ino:49
  }

  // Butonul 4: Schimbare Parola
  if (digitalRead(pinChange) == LOW) {
    1638:	85 e0       	ldi	r24, 0x05	; 5
    163a:	0e 94 1f 01 	call	0x23e	; 0x23e <digitalRead>
    163e:	89 2b       	or	r24, r25
    1640:	09 f0       	breq	.+2      	; 0x1644 <main+0x342>
    1642:	63 c0       	rjmp	.+198    	; 0x170a <main+0x408>
C:\Users\Madalin\Documents\Arduino\proiect_pm/proiect_pm.ino:50
    trezireSistem();
    1644:	0e 94 1a 05 	call	0xa34	; 0xa34 <trezireSistem()>
C:\Users\Madalin\Documents\Arduino\proiect_pm/proiect_pm.ino:51
    delay(300);
    1648:	6c e2       	ldi	r22, 0x2C	; 44
    164a:	71 e0       	ldi	r23, 0x01	; 1
    164c:	80 e0       	ldi	r24, 0x00	; 0
    164e:	90 e0       	ldi	r25, 0x00	; 0
    1650:	0e 94 34 02 	call	0x468	; 0x468 <delay>
schimbaParola():
C:\Users\Madalin\Documents\Arduino\proiect_pm/proiect_pm.ino:119
    else { delay(2000); resetareSistem(); }
  }
}

void schimbaParola() {
  lcd.clear(); lcd.print("PIN NOU:");
    1654:	0e 94 f7 04 	call	0x9ee	; 0x9ee <LiquidCrystal_I2C::clear() [clone .constprop.21]>
    1658:	8f e7       	ldi	r24, 0x7F	; 127
    165a:	91 e0       	ldi	r25, 0x01	; 1
    165c:	0e 94 a6 05 	call	0xb4c	; 0xb4c <Print::print(char const*) [clone .constprop.35]>
C:\Users\Madalin\Documents\Arduino\proiect_pm/proiect_pm.ino:120
  pozitieCifra = 0;
    1660:	10 92 ea 02 	sts	0x02EA, r1	; 0x8002ea <pozitieCifra+0x1>
    1664:	10 92 e9 02 	sts	0x02E9, r1	; 0x8002e9 <pozitieCifra>
C:\Users\Madalin\Documents\Arduino\proiect_pm/proiect_pm.ino:121
  for(int i=0; i<4; i++) pinIntrodus[i] = 0;
    1668:	10 92 e2 02 	sts	0x02E2, r1	; 0x8002e2 <pinIntrodus+0x1>
    166c:	10 92 e1 02 	sts	0x02E1, r1	; 0x8002e1 <pinIntrodus>
    1670:	10 92 e4 02 	sts	0x02E4, r1	; 0x8002e4 <pinIntrodus+0x3>
    1674:	10 92 e3 02 	sts	0x02E3, r1	; 0x8002e3 <pinIntrodus+0x2>
    1678:	10 92 e6 02 	sts	0x02E6, r1	; 0x8002e6 <pinIntrodus+0x5>
    167c:	10 92 e5 02 	sts	0x02E5, r1	; 0x8002e5 <pinIntrodus+0x4>
    1680:	10 92 e8 02 	sts	0x02E8, r1	; 0x8002e8 <pinIntrodus+0x7>
    1684:	10 92 e7 02 	sts	0x02E7, r1	; 0x8002e7 <pinIntrodus+0x6>
C:\Users\Madalin\Documents\Arduino\proiect_pm/proiect_pm.ino:122
  actualizeazaLCD();
    1688:	0e 94 be 05 	call	0xb7c	; 0xb7c <actualizeazaLCD()>
C:\Users\Madalin\Documents\Arduino\proiect_pm/proiect_pm.ino:124
  
  while(pozitieCifra < 4) {
    168c:	c0 90 e9 02 	lds	r12, 0x02E9	; 0x8002e9 <pozitieCifra>
    1690:	d0 90 ea 02 	lds	r13, 0x02EA	; 0x8002ea <pozitieCifra+0x1>
    1694:	84 e0       	ldi	r24, 0x04	; 4
    1696:	c8 16       	cp	r12, r24
    1698:	d1 04       	cpc	r13, r1
    169a:	0c f4       	brge	.+2      	; 0x169e <main+0x39c>
    169c:	f4 c0       	rjmp	.+488    	; 0x1886 <main+0x584>
C:\Users\Madalin\Documents\Arduino\proiect_pm/proiect_pm.ino:130
    if (digitalRead(pinUP) == LOW) { pinIntrodus[pozitieCifra]++; if (pinIntrodus[pozitieCifra] > 9) pinIntrodus[pozitieCifra] = 0; actualizeazaLCD(); delay(250); }
    if (digitalRead(pinDOWN) == LOW) { pinIntrodus[pozitieCifra]--; if (pinIntrodus[pozitieCifra] < 0) pinIntrodus[pozitieCifra] = 9; actualizeazaLCD(); delay(250); }
    if (digitalRead(pinOK) == LOW) { pozitieCifra++; delay(400); if(pozitieCifra < 4) actualizeazaLCD(); }
  }
  
  for(int i=0; i<4; i++) pinCorect[i] = pinIntrodus[i];
    169e:	80 91 e1 02 	lds	r24, 0x02E1	; 0x8002e1 <pinIntrodus>
    16a2:	90 91 e2 02 	lds	r25, 0x02E2	; 0x8002e2 <pinIntrodus+0x1>
    16a6:	90 93 01 01 	sts	0x0101, r25	; 0x800101 <__data_start+0x1>
    16aa:	80 93 00 01 	sts	0x0100, r24	; 0x800100 <__data_start>
    16ae:	80 91 e3 02 	lds	r24, 0x02E3	; 0x8002e3 <pinIntrodus+0x2>
    16b2:	90 91 e4 02 	lds	r25, 0x02E4	; 0x8002e4 <pinIntrodus+0x3>
    16b6:	90 93 03 01 	sts	0x0103, r25	; 0x800103 <__data_start+0x3>
    16ba:	80 93 02 01 	sts	0x0102, r24	; 0x800102 <__data_start+0x2>
    16be:	80 91 e5 02 	lds	r24, 0x02E5	; 0x8002e5 <pinIntrodus+0x4>
    16c2:	90 91 e6 02 	lds	r25, 0x02E6	; 0x8002e6 <pinIntrodus+0x5>
    16c6:	90 93 05 01 	sts	0x0105, r25	; 0x800105 <__data_start+0x5>
    16ca:	80 93 04 01 	sts	0x0104, r24	; 0x800104 <__data_start+0x4>
    16ce:	80 91 e7 02 	lds	r24, 0x02E7	; 0x8002e7 <pinIntrodus+0x6>
    16d2:	90 91 e8 02 	lds	r25, 0x02E8	; 0x8002e8 <pinIntrodus+0x7>
    16d6:	90 93 07 01 	sts	0x0107, r25	; 0x800107 <__data_start+0x7>
    16da:	80 93 06 01 	sts	0x0106, r24	; 0x800106 <__data_start+0x6>
C:\Users\Madalin\Documents\Arduino\proiect_pm/proiect_pm.ino:131
  lcd.clear(); lcd.print("SALVAT!");
    16de:	0e 94 f7 04 	call	0x9ee	; 0x9ee <LiquidCrystal_I2C::clear() [clone .constprop.21]>
    16e2:	88 e8       	ldi	r24, 0x88	; 136
    16e4:	91 e0       	ldi	r25, 0x01	; 1
    16e6:	0e 94 a6 05 	call	0xb4c	; 0xb4c <Print::print(char const*) [clone .constprop.35]>
C:\Users\Madalin\Documents\Arduino\proiect_pm/proiect_pm.ino:132
  setRGB(0, 255, 0); delay(2000);
    16ea:	50 e0       	ldi	r21, 0x00	; 0
    16ec:	40 e0       	ldi	r20, 0x00	; 0
    16ee:	6f ef       	ldi	r22, 0xFF	; 255
    16f0:	70 e0       	ldi	r23, 0x00	; 0
    16f2:	90 e0       	ldi	r25, 0x00	; 0
    16f4:	80 e0       	ldi	r24, 0x00	; 0
    16f6:	0e 94 04 05 	call	0xa08	; 0xa08 <setRGB(int, int, int)>
    16fa:	60 ed       	ldi	r22, 0xD0	; 208
    16fc:	77 e0       	ldi	r23, 0x07	; 7
    16fe:	80 e0       	ldi	r24, 0x00	; 0
    1700:	90 e0       	ldi	r25, 0x00	; 0
    1702:	0e 94 34 02 	call	0x468	; 0x468 <delay>
C:\Users\Madalin\Documents\Arduino\proiect_pm/proiect_pm.ino:133
  resetareSistem();
    1706:	0e 94 f6 05 	call	0xbec	; 0xbec <resetareSistem()>
loop():
C:\Users\Madalin\Documents\Arduino\proiect_pm/proiect_pm.ino:55
    trezireSistem();
    delay(300);
    schimbaParola();
  }

  if (digitalRead(pinUP) == LOW) { trezireSistem(); pinIntrodus[pozitieCifra]++; if (pinIntrodus[pozitieCifra] > 9) pinIntrodus[pozitieCifra] = 0; actualizeazaLCD(); delay(250); }
    170a:	82 e0       	ldi	r24, 0x02	; 2
    170c:	0e 94 1f 01 	call	0x23e	; 0x23e <digitalRead>
    1710:	89 2b       	or	r24, r25
    1712:	d9 f4       	brne	.+54     	; 0x174a <main+0x448>
    1714:	0e 94 1a 05 	call	0xa34	; 0xa34 <trezireSistem()>
    1718:	e0 91 e9 02 	lds	r30, 0x02E9	; 0x8002e9 <pozitieCifra>
    171c:	f0 91 ea 02 	lds	r31, 0x02EA	; 0x8002ea <pozitieCifra+0x1>
    1720:	ee 0f       	add	r30, r30
    1722:	ff 1f       	adc	r31, r31
    1724:	ef 51       	subi	r30, 0x1F	; 31
    1726:	fd 4f       	sbci	r31, 0xFD	; 253
    1728:	80 81       	ld	r24, Z
    172a:	91 81       	ldd	r25, Z+1	; 0x01
    172c:	01 96       	adiw	r24, 0x01	; 1
    172e:	8a 30       	cpi	r24, 0x0A	; 10
    1730:	91 05       	cpc	r25, r1
    1732:	0c f0       	brlt	.+2      	; 0x1736 <main+0x434>
    1734:	02 c1       	rjmp	.+516    	; 0x193a <main+0x638>
    1736:	91 83       	std	Z+1, r25	; 0x01
    1738:	80 83       	st	Z, r24
    173a:	0e 94 be 05 	call	0xb7c	; 0xb7c <actualizeazaLCD()>
    173e:	6a ef       	ldi	r22, 0xFA	; 250
    1740:	70 e0       	ldi	r23, 0x00	; 0
    1742:	80 e0       	ldi	r24, 0x00	; 0
    1744:	90 e0       	ldi	r25, 0x00	; 0
    1746:	0e 94 34 02 	call	0x468	; 0x468 <delay>
C:\Users\Madalin\Documents\Arduino\proiect_pm/proiect_pm.ino:56
  if (digitalRead(pinDOWN) == LOW) { trezireSistem(); pinIntrodus[pozitieCifra]--; if (pinIntrodus[pozitieCifra] < 0) pinIntrodus[pozitieCifra] = 9; actualizeazaLCD(); delay(250); }
    174a:	83 e0       	ldi	r24, 0x03	; 3
    174c:	0e 94 1f 01 	call	0x23e	; 0x23e <digitalRead>
    1750:	89 2b       	or	r24, r25
    1752:	c9 f4       	brne	.+50     	; 0x1786 <main+0x484>
    1754:	0e 94 1a 05 	call	0xa34	; 0xa34 <trezireSistem()>
    1758:	e0 91 e9 02 	lds	r30, 0x02E9	; 0x8002e9 <pozitieCifra>
    175c:	f0 91 ea 02 	lds	r31, 0x02EA	; 0x8002ea <pozitieCifra+0x1>
    1760:	ee 0f       	add	r30, r30
    1762:	ff 1f       	adc	r31, r31
    1764:	ef 51       	subi	r30, 0x1F	; 31
    1766:	fd 4f       	sbci	r31, 0xFD	; 253
    1768:	80 81       	ld	r24, Z
    176a:	91 81       	ldd	r25, Z+1	; 0x01
    176c:	01 97       	sbiw	r24, 0x01	; 1
    176e:	97 fd       	sbrc	r25, 7
    1770:	e7 c0       	rjmp	.+462    	; 0x1940 <main+0x63e>
    1772:	91 83       	std	Z+1, r25	; 0x01
    1774:	80 83       	st	Z, r24
    1776:	0e 94 be 05 	call	0xb7c	; 0xb7c <actualizeazaLCD()>
    177a:	6a ef       	ldi	r22, 0xFA	; 250
    177c:	70 e0       	ldi	r23, 0x00	; 0
    177e:	80 e0       	ldi	r24, 0x00	; 0
    1780:	90 e0       	ldi	r25, 0x00	; 0
    1782:	0e 94 34 02 	call	0x468	; 0x468 <delay>
C:\Users\Madalin\Documents\Arduino\proiect_pm/proiect_pm.ino:58

  if (digitalRead(pinOK) == LOW) {
    1786:	84 e0       	ldi	r24, 0x04	; 4
    1788:	0e 94 1f 01 	call	0x23e	; 0x23e <digitalRead>
    178c:	89 2b       	or	r24, r25
    178e:	09 f0       	breq	.+2      	; 0x1792 <main+0x490>
    1790:	6e c0       	rjmp	.+220    	; 0x186e <main+0x56c>
C:\Users\Madalin\Documents\Arduino\proiect_pm/proiect_pm.ino:59
    trezireSistem();
    1792:	0e 94 1a 05 	call	0xa34	; 0xa34 <trezireSistem()>
C:\Users\Madalin\Documents\Arduino\proiect_pm/proiect_pm.ino:60
    delay(350);
    1796:	6e e5       	ldi	r22, 0x5E	; 94
    1798:	71 e0       	ldi	r23, 0x01	; 1
    179a:	80 e0       	ldi	r24, 0x00	; 0
    179c:	90 e0       	ldi	r25, 0x00	; 0
    179e:	0e 94 34 02 	call	0x468	; 0x468 <delay>
C:\Users\Madalin\Documents\Arduino\proiect_pm/proiect_pm.ino:61
    pozitieCifra++;
    17a2:	80 91 e9 02 	lds	r24, 0x02E9	; 0x8002e9 <pozitieCifra>
    17a6:	90 91 ea 02 	lds	r25, 0x02EA	; 0x8002ea <pozitieCifra+0x1>
    17aa:	01 96       	adiw	r24, 0x01	; 1
    17ac:	90 93 ea 02 	sts	0x02EA, r25	; 0x8002ea <pozitieCifra+0x1>
    17b0:	80 93 e9 02 	sts	0x02E9, r24	; 0x8002e9 <pozitieCifra>
C:\Users\Madalin\Documents\Arduino\proiect_pm/proiect_pm.ino:62
    if (pozitieCifra > 3) { verificaCod(); pozitieCifra = 0; } 
    17b4:	04 97       	sbiw	r24, 0x04	; 4
    17b6:	0c f4       	brge	.+2      	; 0x17ba <main+0x4b8>
    17b8:	4b c1       	rjmp	.+662    	; 0x1a50 <main+0x74e>
    17ba:	41 ee       	ldi	r20, 0xE1	; 225
    17bc:	52 e0       	ldi	r21, 0x02	; 2
    17be:	e8 e0       	ldi	r30, 0x08	; 8
    17c0:	f1 e0       	ldi	r31, 0x01	; 1
    17c2:	90 e1       	ldi	r25, 0x10	; 16
    17c4:	69 2e       	mov	r6, r25
    17c6:	91 e0       	ldi	r25, 0x01	; 1
    17c8:	79 2e       	mov	r7, r25
    17ca:	28 e1       	ldi	r18, 0x18	; 24
    17cc:	31 e0       	ldi	r19, 0x01	; 1
    17ce:	60 e0       	ldi	r22, 0x00	; 0
    17d0:	71 e0       	ldi	r23, 0x01	; 1
main():
C:\Users\Madalin\Documents\Arduino\proiect_pm/proiect_pm.ino:68
    else actualizeazaLCD();
  }
}

void verificaCod() {
  bool corect = true, admin = true, duress = true, invers = true;
    17d2:	99 24       	eor	r9, r9
    17d4:	93 94       	inc	r9
    17d6:	aa 24       	eor	r10, r10
    17d8:	a3 94       	inc	r10
    17da:	bb 24       	eor	r11, r11
    17dc:	b3 94       	inc	r11
    17de:	88 24       	eor	r8, r8
    17e0:	83 94       	inc	r8
verificaCod():
C:\Users\Madalin\Documents\Arduino\proiect_pm/proiect_pm.ino:71
  
  for(int i = 0; i < 4; i++) {
    if(pinIntrodus[i] != pinCorect[i]) corect = false;
    17e2:	da 01       	movw	r26, r20
    17e4:	8d 91       	ld	r24, X+
    17e6:	9d 91       	ld	r25, X+
    17e8:	ad 01       	movw	r20, r26
    17ea:	db 01       	movw	r26, r22
    17ec:	cd 90       	ld	r12, X+
    17ee:	dd 90       	ld	r13, X+
    17f0:	bd 01       	movw	r22, r26
    17f2:	8c 15       	cp	r24, r12
    17f4:	9d 05       	cpc	r25, r13
    17f6:	09 f0       	breq	.+2      	; 0x17fa <main+0x4f8>
main():
    17f8:	81 2c       	mov	r8, r1
verificaCod():
C:\Users\Madalin\Documents\Arduino\proiect_pm/proiect_pm.ino:72
    if(pinIntrodus[i] != pinAdmin[i]) admin = false;
    17fa:	d9 01       	movw	r26, r18
    17fc:	cd 90       	ld	r12, X+
    17fe:	dd 90       	ld	r13, X+
    1800:	9d 01       	movw	r18, r26
    1802:	8c 15       	cp	r24, r12
    1804:	9d 05       	cpc	r25, r13
    1806:	09 f0       	breq	.+2      	; 0x180a <main+0x508>
main():
    1808:	b1 2c       	mov	r11, r1
verificaCod():
C:\Users\Madalin\Documents\Arduino\proiect_pm/proiect_pm.ino:73
    if(pinIntrodus[i] != pinDuress[i]) duress = false;
    180a:	d3 01       	movw	r26, r6
    180c:	cd 90       	ld	r12, X+
    180e:	dd 90       	ld	r13, X+
    1810:	3d 01       	movw	r6, r26
    1812:	8c 15       	cp	r24, r12
    1814:	9d 05       	cpc	r25, r13
    1816:	09 f0       	breq	.+2      	; 0x181a <main+0x518>
main():
    1818:	a1 2c       	mov	r10, r1
verificaCod():
C:\Users\Madalin\Documents\Arduino\proiect_pm/proiect_pm.ino:75
    // Verificare PIN inversat (ex: 4321 fata de 1234)
    if(pinIntrodus[i] != pinCorect[3 - i]) invers = false;
    181a:	d2 90       	ld	r13, -Z
    181c:	c2 90       	ld	r12, -Z
    181e:	8c 15       	cp	r24, r12
    1820:	9d 05       	cpc	r25, r13
    1822:	09 f0       	breq	.+2      	; 0x1826 <main+0x524>
main():
    1824:	91 2c       	mov	r9, r1
verificaCod():
C:\Users\Madalin\Documents\Arduino\proiect_pm/proiect_pm.ino:70
}

void verificaCod() {
  bool corect = true, admin = true, duress = true, invers = true;
  
  for(int i = 0; i < 4; i++) {
    1826:	ee 16       	cp	r14, r30
    1828:	ff 06       	cpc	r15, r31
    182a:	d9 f6       	brne	.-74     	; 0x17e2 <main+0x4e0>
C:\Users\Madalin\Documents\Arduino\proiect_pm/proiect_pm.ino:78
    if(pinIntrodus[i] != pinDuress[i]) duress = false;
    // Verificare PIN inversat (ex: 4321 fata de 1234)
    if(pinIntrodus[i] != pinCorect[3 - i]) invers = false;
  }

  lcd.clear();
    182c:	0e 94 f7 04 	call	0x9ee	; 0x9ee <LiquidCrystal_I2C::clear() [clone .constprop.21]>
C:\Users\Madalin\Documents\Arduino\proiect_pm/proiect_pm.ino:80
  
  if (admin) {
    1830:	bb 20       	and	r11, r11
    1832:	09 f4       	brne	.+2      	; 0x1836 <main+0x534>
    1834:	88 c0       	rjmp	.+272    	; 0x1946 <main+0x644>
C:\Users\Madalin\Documents\Arduino\proiect_pm/proiect_pm.ino:81
    Serial.println("[ADMIN] Bypass activat");
    1836:	80 e9       	ldi	r24, 0x90	; 144
    1838:	91 e0       	ldi	r25, 0x01	; 1
    183a:	0e 94 ab 05 	call	0xb56	; 0xb56 <Print::println(char const*) [clone .constprop.6]>
C:\Users\Madalin\Documents\Arduino\proiect_pm/proiect_pm.ino:82
    lcd.print("MOD ADMIN");
    183e:	87 ea       	ldi	r24, 0xA7	; 167
    1840:	91 e0       	ldi	r25, 0x01	; 1
    1842:	0e 94 a6 05 	call	0xb4c	; 0xb4c <Print::print(char const*) [clone .constprop.35]>
C:\Users\Madalin\Documents\Arduino\proiect_pm/proiect_pm.ino:83
    setRGB(0, 0, 255); delay(2000);
    1846:	4f ef       	ldi	r20, 0xFF	; 255
    1848:	50 e0       	ldi	r21, 0x00	; 0
    184a:	70 e0       	ldi	r23, 0x00	; 0
    184c:	60 e0       	ldi	r22, 0x00	; 0
    184e:	90 e0       	ldi	r25, 0x00	; 0
    1850:	80 e0       	ldi	r24, 0x00	; 0
C:\Users\Madalin\Documents\Arduino\proiect_pm/proiect_pm.ino:99
  else if (invers) {
    Serial.println("[ALERT] PIN INVERSAT DETECTAT!");
    lcd.print("MOD SILENTIOS");
    lcd.setCursor(0, 1);
    lcd.print("ACCES LIMITAT");
    setRGB(255, 165, 0); // Portocaliu
    1852:	0e 94 04 05 	call	0xa08	; 0xa08 <setRGB(int, int, int)>
C:\Users\Madalin\Documents\Arduino\proiect_pm/proiect_pm.ino:100
    delay(2000);
    1856:	60 ed       	ldi	r22, 0xD0	; 208
    1858:	77 e0       	ldi	r23, 0x07	; 7
    185a:	80 e0       	ldi	r24, 0x00	; 0
    185c:	90 e0       	ldi	r25, 0x00	; 0
C:\Users\Madalin\Documents\Arduino\proiect_pm/proiect_pm.ino:106
    deschideUsa();
  }
  else if (corect) {
    lcd.print("COD CORECT");
    incercariGresite = 0;
    delay(1500);
    185e:	0e 94 34 02 	call	0x468	; 0x468 <delay>
C:\Users\Madalin\Documents\Arduino\proiect_pm/proiect_pm.ino:107
    deschideUsa();
    1862:	0e 94 14 06 	call	0xc28	; 0xc28 <deschideUsa()>
loop():
C:\Users\Madalin\Documents\Arduino\proiect_pm/proiect_pm.ino:62

  if (digitalRead(pinOK) == LOW) {
    trezireSistem();
    delay(350);
    pozitieCifra++;
    if (pozitieCifra > 3) { verificaCod(); pozitieCifra = 0; } 
    1866:	10 92 ea 02 	sts	0x02EA, r1	; 0x8002ea <pozitieCifra+0x1>
    186a:	10 92 e9 02 	sts	0x02E9, r1	; 0x8002e9 <pozitieCifra>
serialEventRun():
C:\Users\Madalin\AppData\Local\Arduino15\packages\MiniCore\hardware\avr\3.1.2\cores\MCUdude_corefiles/HardwareSerial.cpp:67
    186e:	01 15       	cp	r16, r1
    1870:	11 05       	cpc	r17, r1
    1872:	09 f4       	brne	.+2      	; 0x1876 <main+0x574>
    1874:	b2 ce       	rjmp	.-668    	; 0x15da <main+0x2d8>
    1876:	0e 94 d2 02 	call	0x5a4	; 0x5a4 <Serial0_available()>
    187a:	88 23       	and	r24, r24
    187c:	09 f4       	brne	.+2      	; 0x1880 <main+0x57e>
    187e:	ad ce       	rjmp	.-678    	; 0x15da <main+0x2d8>
    1880:	0e 94 00 00 	call	0	; 0x0 <__vectors>
    1884:	aa ce       	rjmp	.-684    	; 0x15da <main+0x2d8>
schimbaParola():
C:\Users\Madalin\Documents\Arduino\proiect_pm/proiect_pm.ino:125
  pozitieCifra = 0;
  for(int i=0; i<4; i++) pinIntrodus[i] = 0;
  actualizeazaLCD();
  
  while(pozitieCifra < 4) {
    if (digitalRead(pinUP) == LOW) { pinIntrodus[pozitieCifra]++; if (pinIntrodus[pozitieCifra] > 9) pinIntrodus[pozitieCifra] = 0; actualizeazaLCD(); delay(250); }
    1886:	82 e0       	ldi	r24, 0x02	; 2
    1888:	0e 94 1f 01 	call	0x23e	; 0x23e <digitalRead>
    188c:	89 2b       	or	r24, r25
    188e:	b1 f4       	brne	.+44     	; 0x18bc <main+0x5ba>
    1890:	f6 01       	movw	r30, r12
    1892:	ee 0f       	add	r30, r30
    1894:	ff 1f       	adc	r31, r31
    1896:	ef 51       	subi	r30, 0x1F	; 31
    1898:	fd 4f       	sbci	r31, 0xFD	; 253
    189a:	80 81       	ld	r24, Z
    189c:	91 81       	ldd	r25, Z+1	; 0x01
    189e:	01 96       	adiw	r24, 0x01	; 1
    18a0:	8a 30       	cpi	r24, 0x0A	; 10
    18a2:	91 05       	cpc	r25, r1
    18a4:	0c f0       	brlt	.+2      	; 0x18a8 <main+0x5a6>
    18a6:	43 c0       	rjmp	.+134    	; 0x192e <main+0x62c>
    18a8:	91 83       	std	Z+1, r25	; 0x01
    18aa:	80 83       	st	Z, r24
    18ac:	0e 94 be 05 	call	0xb7c	; 0xb7c <actualizeazaLCD()>
    18b0:	6a ef       	ldi	r22, 0xFA	; 250
    18b2:	70 e0       	ldi	r23, 0x00	; 0
    18b4:	80 e0       	ldi	r24, 0x00	; 0
    18b6:	90 e0       	ldi	r25, 0x00	; 0
    18b8:	0e 94 34 02 	call	0x468	; 0x468 <delay>
C:\Users\Madalin\Documents\Arduino\proiect_pm/proiect_pm.ino:126
    if (digitalRead(pinDOWN) == LOW) { pinIntrodus[pozitieCifra]--; if (pinIntrodus[pozitieCifra] < 0) pinIntrodus[pozitieCifra] = 9; actualizeazaLCD(); delay(250); }
    18bc:	83 e0       	ldi	r24, 0x03	; 3
    18be:	0e 94 1f 01 	call	0x23e	; 0x23e <digitalRead>
    18c2:	89 2b       	or	r24, r25
    18c4:	b9 f4       	brne	.+46     	; 0x18f4 <main+0x5f2>
    18c6:	e0 91 e9 02 	lds	r30, 0x02E9	; 0x8002e9 <pozitieCifra>
    18ca:	f0 91 ea 02 	lds	r31, 0x02EA	; 0x8002ea <pozitieCifra+0x1>
    18ce:	ee 0f       	add	r30, r30
    18d0:	ff 1f       	adc	r31, r31
    18d2:	ef 51       	subi	r30, 0x1F	; 31
    18d4:	fd 4f       	sbci	r31, 0xFD	; 253
    18d6:	80 81       	ld	r24, Z
    18d8:	91 81       	ldd	r25, Z+1	; 0x01
    18da:	01 97       	sbiw	r24, 0x01	; 1
    18dc:	97 fd       	sbrc	r25, 7
    18de:	2a c0       	rjmp	.+84     	; 0x1934 <main+0x632>
    18e0:	91 83       	std	Z+1, r25	; 0x01
    18e2:	80 83       	st	Z, r24
    18e4:	0e 94 be 05 	call	0xb7c	; 0xb7c <actualizeazaLCD()>
    18e8:	6a ef       	ldi	r22, 0xFA	; 250
    18ea:	70 e0       	ldi	r23, 0x00	; 0
    18ec:	80 e0       	ldi	r24, 0x00	; 0
    18ee:	90 e0       	ldi	r25, 0x00	; 0
    18f0:	0e 94 34 02 	call	0x468	; 0x468 <delay>
C:\Users\Madalin\Documents\Arduino\proiect_pm/proiect_pm.ino:127
    if (digitalRead(pinOK) == LOW) { pozitieCifra++; delay(400); if(pozitieCifra < 4) actualizeazaLCD(); }
    18f4:	84 e0       	ldi	r24, 0x04	; 4
    18f6:	0e 94 1f 01 	call	0x23e	; 0x23e <digitalRead>
    18fa:	89 2b       	or	r24, r25
    18fc:	09 f0       	breq	.+2      	; 0x1900 <main+0x5fe>
    18fe:	c6 ce       	rjmp	.-628    	; 0x168c <main+0x38a>
    1900:	c0 90 e9 02 	lds	r12, 0x02E9	; 0x8002e9 <pozitieCifra>
    1904:	d0 90 ea 02 	lds	r13, 0x02EA	; 0x8002ea <pozitieCifra+0x1>
    1908:	af ef       	ldi	r26, 0xFF	; 255
    190a:	ca 1a       	sub	r12, r26
    190c:	da 0a       	sbc	r13, r26
    190e:	d0 92 ea 02 	sts	0x02EA, r13	; 0x8002ea <pozitieCifra+0x1>
    1912:	c0 92 e9 02 	sts	0x02E9, r12	; 0x8002e9 <pozitieCifra>
    1916:	60 e9       	ldi	r22, 0x90	; 144
    1918:	71 e0       	ldi	r23, 0x01	; 1
    191a:	80 e0       	ldi	r24, 0x00	; 0
    191c:	90 e0       	ldi	r25, 0x00	; 0
    191e:	0e 94 34 02 	call	0x468	; 0x468 <delay>
    1922:	b4 e0       	ldi	r27, 0x04	; 4
    1924:	cb 16       	cp	r12, r27
    1926:	d1 04       	cpc	r13, r1
    1928:	0c f0       	brlt	.+2      	; 0x192c <main+0x62a>
    192a:	b0 ce       	rjmp	.-672    	; 0x168c <main+0x38a>
    192c:	ad ce       	rjmp	.-678    	; 0x1688 <main+0x386>
C:\Users\Madalin\Documents\Arduino\proiect_pm/proiect_pm.ino:125
  pozitieCifra = 0;
  for(int i=0; i<4; i++) pinIntrodus[i] = 0;
  actualizeazaLCD();
  
  while(pozitieCifra < 4) {
    if (digitalRead(pinUP) == LOW) { pinIntrodus[pozitieCifra]++; if (pinIntrodus[pozitieCifra] > 9) pinIntrodus[pozitieCifra] = 0; actualizeazaLCD(); delay(250); }
    192e:	11 82       	std	Z+1, r1	; 0x01
    1930:	10 82       	st	Z, r1
    1932:	bc cf       	rjmp	.-136    	; 0x18ac <main+0x5aa>
C:\Users\Madalin\Documents\Arduino\proiect_pm/proiect_pm.ino:126
    if (digitalRead(pinDOWN) == LOW) { pinIntrodus[pozitieCifra]--; if (pinIntrodus[pozitieCifra] < 0) pinIntrodus[pozitieCifra] = 9; actualizeazaLCD(); delay(250); }
    1934:	d1 83       	std	Z+1, r29	; 0x01
    1936:	c0 83       	st	Z, r28
    1938:	d5 cf       	rjmp	.-86     	; 0x18e4 <main+0x5e2>
loop():
C:\Users\Madalin\Documents\Arduino\proiect_pm/proiect_pm.ino:55
    trezireSistem();
    delay(300);
    schimbaParola();
  }

  if (digitalRead(pinUP) == LOW) { trezireSistem(); pinIntrodus[pozitieCifra]++; if (pinIntrodus[pozitieCifra] > 9) pinIntrodus[pozitieCifra] = 0; actualizeazaLCD(); delay(250); }
    193a:	11 82       	std	Z+1, r1	; 0x01
    193c:	10 82       	st	Z, r1
    193e:	fd ce       	rjmp	.-518    	; 0x173a <main+0x438>
C:\Users\Madalin\Documents\Arduino\proiect_pm/proiect_pm.ino:56
  if (digitalRead(pinDOWN) == LOW) { trezireSistem(); pinIntrodus[pozitieCifra]--; if (pinIntrodus[pozitieCifra] < 0) pinIntrodus[pozitieCifra] = 9; actualizeazaLCD(); delay(250); }
    1940:	d1 83       	std	Z+1, r29	; 0x01
    1942:	c0 83       	st	Z, r28
    1944:	18 cf       	rjmp	.-464    	; 0x1776 <main+0x474>
verificaCod():
C:\Users\Madalin\Documents\Arduino\proiect_pm/proiect_pm.ino:86
    Serial.println("[ADMIN] Bypass activat");
    lcd.print("MOD ADMIN");
    setRGB(0, 0, 255); delay(2000);
    deschideUsa();
  } 
  else if (duress) {
    1946:	aa 20       	and	r10, r10
    1948:	b1 f1       	breq	.+108    	; 0x19b6 <main+0x6b4>
C:\Users\Madalin\Documents\Arduino\proiect_pm/proiect_pm.ino:87
    Serial.println("[ALERT] COD 0000 - APEL POLITIE!");
    194a:	81 eb       	ldi	r24, 0xB1	; 177
    194c:	91 e0       	ldi	r25, 0x01	; 1
    194e:	0e 94 ab 05 	call	0xb56	; 0xb56 <Print::println(char const*) [clone .constprop.6]>
C:\Users\Madalin\Documents\Arduino\proiect_pm/proiect_pm.ino:88
    lcd.print("IN PERICOL!");
    1952:	82 ed       	ldi	r24, 0xD2	; 210
    1954:	91 e0       	ldi	r25, 0x01	; 1
    1956:	0e 94 a6 05 	call	0xb4c	; 0xb4c <Print::print(char const*) [clone .constprop.35]>
C:\Users\Madalin\Documents\Arduino\proiect_pm/proiect_pm.ino:89
    lcd.setCursor(0, 1);
    195a:	0e 94 c4 04 	call	0x988	; 0x988 <LiquidCrystal_I2C::setCursor(unsigned char, unsigned char) [clone .constprop.23]>
C:\Users\Madalin\Documents\Arduino\proiect_pm/proiect_pm.ino:90
    lcd.print("SUNAM POLITIA...");
    195e:	8e ed       	ldi	r24, 0xDE	; 222
    1960:	91 e0       	ldi	r25, 0x01	; 1
    1962:	0e 94 a6 05 	call	0xb4c	; 0xb4c <Print::print(char const*) [clone .constprop.35]>
    1966:	85 e0       	ldi	r24, 0x05	; 5
    1968:	c8 2e       	mov	r12, r24
    196a:	d1 2c       	mov	r13, r1
C:\Users\Madalin\Documents\Arduino\proiect_pm/proiect_pm.ino:91
    for(int i=0; i<5; i++) { setRGB(255, 0, 0); delay(200); setRGB(0, 0, 255); delay(200); } // Girofar
    196c:	50 e0       	ldi	r21, 0x00	; 0
    196e:	40 e0       	ldi	r20, 0x00	; 0
    1970:	70 e0       	ldi	r23, 0x00	; 0
    1972:	60 e0       	ldi	r22, 0x00	; 0
    1974:	8f ef       	ldi	r24, 0xFF	; 255
    1976:	90 e0       	ldi	r25, 0x00	; 0
    1978:	0e 94 04 05 	call	0xa08	; 0xa08 <setRGB(int, int, int)>
    197c:	68 ec       	ldi	r22, 0xC8	; 200
    197e:	70 e0       	ldi	r23, 0x00	; 0
    1980:	80 e0       	ldi	r24, 0x00	; 0
    1982:	90 e0       	ldi	r25, 0x00	; 0
    1984:	0e 94 34 02 	call	0x468	; 0x468 <delay>
    1988:	4f ef       	ldi	r20, 0xFF	; 255
    198a:	50 e0       	ldi	r21, 0x00	; 0
    198c:	70 e0       	ldi	r23, 0x00	; 0
    198e:	60 e0       	ldi	r22, 0x00	; 0
    1990:	90 e0       	ldi	r25, 0x00	; 0
    1992:	80 e0       	ldi	r24, 0x00	; 0
    1994:	0e 94 04 05 	call	0xa08	; 0xa08 <setRGB(int, int, int)>
    1998:	68 ec       	ldi	r22, 0xC8	; 200
    199a:	70 e0       	ldi	r23, 0x00	; 0
    199c:	80 e0       	ldi	r24, 0x00	; 0
    199e:	90 e0       	ldi	r25, 0x00	; 0
    19a0:	0e 94 34 02 	call	0x468	; 0x468 <delay>
    19a4:	b1 e0       	ldi	r27, 0x01	; 1
    19a6:	cb 1a       	sub	r12, r27
    19a8:	d1 08       	sbc	r13, r1
    19aa:	01 f7       	brne	.-64     	; 0x196c <main+0x66a>
C:\Users\Madalin\Documents\Arduino\proiect_pm/proiect_pm.ino:92
    blocheazaSistem(10); // Blocare 10 secunde
    19ac:	8a e0       	ldi	r24, 0x0A	; 10
    19ae:	90 e0       	ldi	r25, 0x00	; 0
C:\Users\Madalin\Documents\Arduino\proiect_pm/proiect_pm.ino:113
  } 
  else {
    incercariGresite++;
    lcd.print("COD GRESIT!");
    setRGB(255, 0, 0);
    if (incercariGresite >= 3) blocheazaSistem(15);
    19b0:	0e 94 32 06 	call	0xc64	; 0xc64 <blocheazaSistem(int)>
    19b4:	58 cf       	rjmp	.-336    	; 0x1866 <main+0x564>
C:\Users\Madalin\Documents\Arduino\proiect_pm/proiect_pm.ino:94
    lcd.setCursor(0, 1);
    lcd.print("SUNAM POLITIA...");
    for(int i=0; i<5; i++) { setRGB(255, 0, 0); delay(200); setRGB(0, 0, 255); delay(200); } // Girofar
    blocheazaSistem(10); // Blocare 10 secunde
  }
  else if (invers) {
    19b6:	99 20       	and	r9, r9
    19b8:	a9 f0       	breq	.+42     	; 0x19e4 <main+0x6e2>
C:\Users\Madalin\Documents\Arduino\proiect_pm/proiect_pm.ino:95
    Serial.println("[ALERT] PIN INVERSAT DETECTAT!");
    19ba:	8f ee       	ldi	r24, 0xEF	; 239
    19bc:	91 e0       	ldi	r25, 0x01	; 1
    19be:	0e 94 ab 05 	call	0xb56	; 0xb56 <Print::println(char const*) [clone .constprop.6]>
C:\Users\Madalin\Documents\Arduino\proiect_pm/proiect_pm.ino:96
    lcd.print("MOD SILENTIOS");
    19c2:	8e e0       	ldi	r24, 0x0E	; 14
    19c4:	92 e0       	ldi	r25, 0x02	; 2
    19c6:	0e 94 a6 05 	call	0xb4c	; 0xb4c <Print::print(char const*) [clone .constprop.35]>
C:\Users\Madalin\Documents\Arduino\proiect_pm/proiect_pm.ino:97
    lcd.setCursor(0, 1);
    19ca:	0e 94 c4 04 	call	0x988	; 0x988 <LiquidCrystal_I2C::setCursor(unsigned char, unsigned char) [clone .constprop.23]>
C:\Users\Madalin\Documents\Arduino\proiect_pm/proiect_pm.ino:98
    lcd.print("ACCES LIMITAT");
    19ce:	8c e1       	ldi	r24, 0x1C	; 28
    19d0:	92 e0       	ldi	r25, 0x02	; 2
    19d2:	0e 94 a6 05 	call	0xb4c	; 0xb4c <Print::print(char const*) [clone .constprop.35]>
C:\Users\Madalin\Documents\Arduino\proiect_pm/proiect_pm.ino:99
    setRGB(255, 165, 0); // Portocaliu
    19d6:	50 e0       	ldi	r21, 0x00	; 0
    19d8:	40 e0       	ldi	r20, 0x00	; 0
    19da:	65 ea       	ldi	r22, 0xA5	; 165
    19dc:	70 e0       	ldi	r23, 0x00	; 0
    19de:	8f ef       	ldi	r24, 0xFF	; 255
    19e0:	90 e0       	ldi	r25, 0x00	; 0
    19e2:	37 cf       	rjmp	.-402    	; 0x1852 <main+0x550>
C:\Users\Madalin\Documents\Arduino\proiect_pm/proiect_pm.ino:103
    delay(2000);
    deschideUsa();
  }
  else if (corect) {
    19e4:	88 20       	and	r8, r8
    19e6:	69 f0       	breq	.+26     	; 0x1a02 <main+0x700>
C:\Users\Madalin\Documents\Arduino\proiect_pm/proiect_pm.ino:104
    lcd.print("COD CORECT");
    19e8:	8a e2       	ldi	r24, 0x2A	; 42
    19ea:	92 e0       	ldi	r25, 0x02	; 2
    19ec:	0e 94 a6 05 	call	0xb4c	; 0xb4c <Print::print(char const*) [clone .constprop.35]>
C:\Users\Madalin\Documents\Arduino\proiect_pm/proiect_pm.ino:105
    incercariGresite = 0;
    19f0:	10 92 e0 02 	sts	0x02E0, r1	; 0x8002e0 <incercariGresite+0x1>
    19f4:	10 92 df 02 	sts	0x02DF, r1	; 0x8002df <incercariGresite>
C:\Users\Madalin\Documents\Arduino\proiect_pm/proiect_pm.ino:106
    delay(1500);
    19f8:	6c ed       	ldi	r22, 0xDC	; 220
    19fa:	75 e0       	ldi	r23, 0x05	; 5
    19fc:	80 e0       	ldi	r24, 0x00	; 0
    19fe:	90 e0       	ldi	r25, 0x00	; 0
    1a00:	2e cf       	rjmp	.-420    	; 0x185e <main+0x55c>
C:\Users\Madalin\Documents\Arduino\proiect_pm/proiect_pm.ino:110
    deschideUsa();
  } 
  else {
    incercariGresite++;
    1a02:	80 91 df 02 	lds	r24, 0x02DF	; 0x8002df <incercariGresite>
    1a06:	90 91 e0 02 	lds	r25, 0x02E0	; 0x8002e0 <incercariGresite+0x1>
    1a0a:	01 96       	adiw	r24, 0x01	; 1
    1a0c:	90 93 e0 02 	sts	0x02E0, r25	; 0x8002e0 <incercariGresite+0x1>
    1a10:	80 93 df 02 	sts	0x02DF, r24	; 0x8002df <incercariGresite>
C:\Users\Madalin\Documents\Arduino\proiect_pm/proiect_pm.ino:111
    lcd.print("COD GRESIT!");
    1a14:	85 e3       	ldi	r24, 0x35	; 53
    1a16:	92 e0       	ldi	r25, 0x02	; 2
    1a18:	0e 94 a6 05 	call	0xb4c	; 0xb4c <Print::print(char const*) [clone .constprop.35]>
C:\Users\Madalin\Documents\Arduino\proiect_pm/proiect_pm.ino:112
    setRGB(255, 0, 0);
    1a1c:	50 e0       	ldi	r21, 0x00	; 0
    1a1e:	40 e0       	ldi	r20, 0x00	; 0
    1a20:	70 e0       	ldi	r23, 0x00	; 0
    1a22:	60 e0       	ldi	r22, 0x00	; 0
    1a24:	8f ef       	ldi	r24, 0xFF	; 255
    1a26:	90 e0       	ldi	r25, 0x00	; 0
    1a28:	0e 94 04 05 	call	0xa08	; 0xa08 <setRGB(int, int, int)>
C:\Users\Madalin\Documents\Arduino\proiect_pm/proiect_pm.ino:113
    if (incercariGresite >= 3) blocheazaSistem(15);
    1a2c:	80 91 df 02 	lds	r24, 0x02DF	; 0x8002df <incercariGresite>
    1a30:	90 91 e0 02 	lds	r25, 0x02E0	; 0x8002e0 <incercariGresite+0x1>
    1a34:	03 97       	sbiw	r24, 0x03	; 3
    1a36:	1c f0       	brlt	.+6      	; 0x1a3e <main+0x73c>
    1a38:	8f e0       	ldi	r24, 0x0F	; 15
    1a3a:	90 e0       	ldi	r25, 0x00	; 0
    1a3c:	b9 cf       	rjmp	.-142    	; 0x19b0 <main+0x6ae>
C:\Users\Madalin\Documents\Arduino\proiect_pm/proiect_pm.ino:114
    else { delay(2000); resetareSistem(); }
    1a3e:	60 ed       	ldi	r22, 0xD0	; 208
    1a40:	77 e0       	ldi	r23, 0x07	; 7
    1a42:	80 e0       	ldi	r24, 0x00	; 0
    1a44:	90 e0       	ldi	r25, 0x00	; 0
    1a46:	0e 94 34 02 	call	0x468	; 0x468 <delay>
    1a4a:	0e 94 f6 05 	call	0xbec	; 0xbec <resetareSistem()>
    1a4e:	0b cf       	rjmp	.-490    	; 0x1866 <main+0x564>
loop():
C:\Users\Madalin\Documents\Arduino\proiect_pm/proiect_pm.ino:63
  if (digitalRead(pinOK) == LOW) {
    trezireSistem();
    delay(350);
    pozitieCifra++;
    if (pozitieCifra > 3) { verificaCod(); pozitieCifra = 0; } 
    else actualizeazaLCD();
    1a50:	0e 94 be 05 	call	0xb7c	; 0xb7c <actualizeazaLCD()>
    1a54:	0c cf       	rjmp	.-488    	; 0x186e <main+0x56c>

00001a56 <__divmodsi4>:
__divmodsi4():
/home/jenkins-mingw32/workspace/avr-gcc-staging/label/Ubuntu14.04x64-mingw32/gcc-build/avr/avr5/libgcc/../../../../gcc/libgcc/config/avr/lib1funcs.S:1686
    1a56:	05 2e       	mov	r0, r21
/home/jenkins-mingw32/workspace/avr-gcc-staging/label/Ubuntu14.04x64-mingw32/gcc-build/avr/avr5/libgcc/../../../../gcc/libgcc/config/avr/lib1funcs.S:1687
    1a58:	97 fb       	bst	r25, 7
/home/jenkins-mingw32/workspace/avr-gcc-staging/label/Ubuntu14.04x64-mingw32/gcc-build/avr/avr5/libgcc/../../../../gcc/libgcc/config/avr/lib1funcs.S:1688
    1a5a:	1e f4       	brtc	.+6      	; 0x1a62 <__divmodsi4+0xc>
/home/jenkins-mingw32/workspace/avr-gcc-staging/label/Ubuntu14.04x64-mingw32/gcc-build/avr/avr5/libgcc/../../../../gcc/libgcc/config/avr/lib1funcs.S:1689
    1a5c:	00 94       	com	r0
/home/jenkins-mingw32/workspace/avr-gcc-staging/label/Ubuntu14.04x64-mingw32/gcc-build/avr/avr5/libgcc/../../../../gcc/libgcc/config/avr/lib1funcs.S:1690
    1a5e:	0e 94 42 0d 	call	0x1a84	; 0x1a84 <__negsi2>
/home/jenkins-mingw32/workspace/avr-gcc-staging/label/Ubuntu14.04x64-mingw32/gcc-build/avr/avr5/libgcc/../../../../gcc/libgcc/config/avr/lib1funcs.S:1692
    1a62:	57 fd       	sbrc	r21, 7
/home/jenkins-mingw32/workspace/avr-gcc-staging/label/Ubuntu14.04x64-mingw32/gcc-build/avr/avr5/libgcc/../../../../gcc/libgcc/config/avr/lib1funcs.S:1693
    1a64:	07 d0       	rcall	.+14     	; 0x1a74 <__divmodsi4_neg2>
/home/jenkins-mingw32/workspace/avr-gcc-staging/label/Ubuntu14.04x64-mingw32/gcc-build/avr/avr5/libgcc/../../../../gcc/libgcc/config/avr/lib1funcs.S:1694
    1a66:	0e 94 5d 0d 	call	0x1aba	; 0x1aba <__udivmodsi4>
/home/jenkins-mingw32/workspace/avr-gcc-staging/label/Ubuntu14.04x64-mingw32/gcc-build/avr/avr5/libgcc/../../../../gcc/libgcc/config/avr/lib1funcs.S:1695
    1a6a:	07 fc       	sbrc	r0, 7
/home/jenkins-mingw32/workspace/avr-gcc-staging/label/Ubuntu14.04x64-mingw32/gcc-build/avr/avr5/libgcc/../../../../gcc/libgcc/config/avr/lib1funcs.S:1696
    1a6c:	03 d0       	rcall	.+6      	; 0x1a74 <__divmodsi4_neg2>
/home/jenkins-mingw32/workspace/avr-gcc-staging/label/Ubuntu14.04x64-mingw32/gcc-build/avr/avr5/libgcc/../../../../gcc/libgcc/config/avr/lib1funcs.S:1697
    1a6e:	4e f4       	brtc	.+18     	; 0x1a82 <__divmodsi4_exit>
/home/jenkins-mingw32/workspace/avr-gcc-staging/label/Ubuntu14.04x64-mingw32/gcc-build/avr/avr5/libgcc/../../../../gcc/libgcc/config/avr/lib1funcs.S:1698
    1a70:	0c 94 42 0d 	jmp	0x1a84	; 0x1a84 <__negsi2>

00001a74 <__divmodsi4_neg2>:
/home/jenkins-mingw32/workspace/avr-gcc-staging/label/Ubuntu14.04x64-mingw32/gcc-build/avr/avr5/libgcc/../../../../gcc/libgcc/config/avr/lib1funcs.S:1701
    1a74:	50 95       	com	r21
/home/jenkins-mingw32/workspace/avr-gcc-staging/label/Ubuntu14.04x64-mingw32/gcc-build/avr/avr5/libgcc/../../../../gcc/libgcc/config/avr/lib1funcs.S:1702
    1a76:	40 95       	com	r20
/home/jenkins-mingw32/workspace/avr-gcc-staging/label/Ubuntu14.04x64-mingw32/gcc-build/avr/avr5/libgcc/../../../../gcc/libgcc/config/avr/lib1funcs.S:1703
    1a78:	30 95       	com	r19
/home/jenkins-mingw32/workspace/avr-gcc-staging/label/Ubuntu14.04x64-mingw32/gcc-build/avr/avr5/libgcc/../../../../gcc/libgcc/config/avr/lib1funcs.S:1704
    1a7a:	21 95       	neg	r18
/home/jenkins-mingw32/workspace/avr-gcc-staging/label/Ubuntu14.04x64-mingw32/gcc-build/avr/avr5/libgcc/../../../../gcc/libgcc/config/avr/lib1funcs.S:1705
    1a7c:	3f 4f       	sbci	r19, 0xFF	; 255
/home/jenkins-mingw32/workspace/avr-gcc-staging/label/Ubuntu14.04x64-mingw32/gcc-build/avr/avr5/libgcc/../../../../gcc/libgcc/config/avr/lib1funcs.S:1706
    1a7e:	4f 4f       	sbci	r20, 0xFF	; 255
/home/jenkins-mingw32/workspace/avr-gcc-staging/label/Ubuntu14.04x64-mingw32/gcc-build/avr/avr5/libgcc/../../../../gcc/libgcc/config/avr/lib1funcs.S:1707
    1a80:	5f 4f       	sbci	r21, 0xFF	; 255

00001a82 <__divmodsi4_exit>:
/home/jenkins-mingw32/workspace/avr-gcc-staging/label/Ubuntu14.04x64-mingw32/gcc-build/avr/avr5/libgcc/../../../../gcc/libgcc/config/avr/lib1funcs.S:1709
    1a82:	08 95       	ret

00001a84 <__negsi2>:
__negsi2():
/home/jenkins-mingw32/workspace/avr-gcc-staging/label/Ubuntu14.04x64-mingw32/gcc-build/avr/avr5/libgcc/../../../../gcc/libgcc/config/avr/lib1funcs.S:1718
    1a84:	90 95       	com	r25
    1a86:	80 95       	com	r24
    1a88:	70 95       	com	r23
    1a8a:	61 95       	neg	r22
    1a8c:	7f 4f       	sbci	r23, 0xFF	; 255
    1a8e:	8f 4f       	sbci	r24, 0xFF	; 255
    1a90:	9f 4f       	sbci	r25, 0xFF	; 255
/home/jenkins-mingw32/workspace/avr-gcc-staging/label/Ubuntu14.04x64-mingw32/gcc-build/avr/avr5/libgcc/../../../../gcc/libgcc/config/avr/lib1funcs.S:1719
    1a92:	08 95       	ret

00001a94 <__muluhisi3>:
__muluhisi3():
/home/jenkins-mingw32/workspace/avr-gcc-staging/label/Ubuntu14.04x64-mingw32/gcc-build/avr/avr5/libgcc/../../../../gcc/libgcc/config/avr/lib1funcs.S:626
    1a94:	0e 94 7f 0d 	call	0x1afe	; 0x1afe <__umulhisi3>
/home/jenkins-mingw32/workspace/avr-gcc-staging/label/Ubuntu14.04x64-mingw32/gcc-build/avr/avr5/libgcc/../../../../gcc/libgcc/config/avr/lib1funcs.S:627
    1a98:	a5 9f       	mul	r26, r21
/home/jenkins-mingw32/workspace/avr-gcc-staging/label/Ubuntu14.04x64-mingw32/gcc-build/avr/avr5/libgcc/../../../../gcc/libgcc/config/avr/lib1funcs.S:628
    1a9a:	90 0d       	add	r25, r0
/home/jenkins-mingw32/workspace/avr-gcc-staging/label/Ubuntu14.04x64-mingw32/gcc-build/avr/avr5/libgcc/../../../../gcc/libgcc/config/avr/lib1funcs.S:629
    1a9c:	b4 9f       	mul	r27, r20
/home/jenkins-mingw32/workspace/avr-gcc-staging/label/Ubuntu14.04x64-mingw32/gcc-build/avr/avr5/libgcc/../../../../gcc/libgcc/config/avr/lib1funcs.S:630
    1a9e:	90 0d       	add	r25, r0
/home/jenkins-mingw32/workspace/avr-gcc-staging/label/Ubuntu14.04x64-mingw32/gcc-build/avr/avr5/libgcc/../../../../gcc/libgcc/config/avr/lib1funcs.S:631
    1aa0:	a4 9f       	mul	r26, r20
/home/jenkins-mingw32/workspace/avr-gcc-staging/label/Ubuntu14.04x64-mingw32/gcc-build/avr/avr5/libgcc/../../../../gcc/libgcc/config/avr/lib1funcs.S:632
    1aa2:	80 0d       	add	r24, r0
/home/jenkins-mingw32/workspace/avr-gcc-staging/label/Ubuntu14.04x64-mingw32/gcc-build/avr/avr5/libgcc/../../../../gcc/libgcc/config/avr/lib1funcs.S:633
    1aa4:	91 1d       	adc	r25, r1
/home/jenkins-mingw32/workspace/avr-gcc-staging/label/Ubuntu14.04x64-mingw32/gcc-build/avr/avr5/libgcc/../../../../gcc/libgcc/config/avr/lib1funcs.S:634
    1aa6:	11 24       	eor	r1, r1
/home/jenkins-mingw32/workspace/avr-gcc-staging/label/Ubuntu14.04x64-mingw32/gcc-build/avr/avr5/libgcc/../../../../gcc/libgcc/config/avr/lib1funcs.S:635
    1aa8:	08 95       	ret

00001aaa <__mulshisi3>:
__mulshisi3():
/home/jenkins-mingw32/workspace/avr-gcc-staging/label/Ubuntu14.04x64-mingw32/gcc-build/avr/avr5/libgcc/../../../../gcc/libgcc/config/avr/lib1funcs.S:603
    1aaa:	b7 ff       	sbrs	r27, 7
/home/jenkins-mingw32/workspace/avr-gcc-staging/label/Ubuntu14.04x64-mingw32/gcc-build/avr/avr5/libgcc/../../../../gcc/libgcc/config/avr/lib1funcs.S:605
    1aac:	0c 94 4a 0d 	jmp	0x1a94	; 0x1a94 <__muluhisi3>

00001ab0 <__mulohisi3>:
__mulohisi3():
/home/jenkins-mingw32/workspace/avr-gcc-staging/label/Ubuntu14.04x64-mingw32/gcc-build/avr/avr5/libgcc/../../../../gcc/libgcc/config/avr/lib1funcs.S:613
    1ab0:	0e 94 4a 0d 	call	0x1a94	; 0x1a94 <__muluhisi3>
/home/jenkins-mingw32/workspace/avr-gcc-staging/label/Ubuntu14.04x64-mingw32/gcc-build/avr/avr5/libgcc/../../../../gcc/libgcc/config/avr/lib1funcs.S:615
    1ab4:	82 1b       	sub	r24, r18
/home/jenkins-mingw32/workspace/avr-gcc-staging/label/Ubuntu14.04x64-mingw32/gcc-build/avr/avr5/libgcc/../../../../gcc/libgcc/config/avr/lib1funcs.S:616
    1ab6:	93 0b       	sbc	r25, r19
/home/jenkins-mingw32/workspace/avr-gcc-staging/label/Ubuntu14.04x64-mingw32/gcc-build/avr/avr5/libgcc/../../../../gcc/libgcc/config/avr/lib1funcs.S:617
    1ab8:	08 95       	ret

00001aba <__udivmodsi4>:
__udivmodsi4():
/home/jenkins-mingw32/workspace/avr-gcc-staging/label/Ubuntu14.04x64-mingw32/gcc-build/avr/avr5/libgcc/../../../../gcc/libgcc/config/avr/lib1funcs.S:1638
    1aba:	a1 e2       	ldi	r26, 0x21	; 33
/home/jenkins-mingw32/workspace/avr-gcc-staging/label/Ubuntu14.04x64-mingw32/gcc-build/avr/avr5/libgcc/../../../../gcc/libgcc/config/avr/lib1funcs.S:1639
    1abc:	1a 2e       	mov	r1, r26
/home/jenkins-mingw32/workspace/avr-gcc-staging/label/Ubuntu14.04x64-mingw32/gcc-build/avr/avr5/libgcc/../../../../gcc/libgcc/config/avr/lib1funcs.S:1640
    1abe:	aa 1b       	sub	r26, r26
/home/jenkins-mingw32/workspace/avr-gcc-staging/label/Ubuntu14.04x64-mingw32/gcc-build/avr/avr5/libgcc/../../../../gcc/libgcc/config/avr/lib1funcs.S:1641
    1ac0:	bb 1b       	sub	r27, r27
/home/jenkins-mingw32/workspace/avr-gcc-staging/label/Ubuntu14.04x64-mingw32/gcc-build/avr/avr5/libgcc/../../../../gcc/libgcc/config/avr/lib1funcs.S:1642
    1ac2:	fd 01       	movw	r30, r26
/home/jenkins-mingw32/workspace/avr-gcc-staging/label/Ubuntu14.04x64-mingw32/gcc-build/avr/avr5/libgcc/../../../../gcc/libgcc/config/avr/lib1funcs.S:1644
    1ac4:	0d c0       	rjmp	.+26     	; 0x1ae0 <__udivmodsi4_ep>

00001ac6 <__udivmodsi4_loop>:
/home/jenkins-mingw32/workspace/avr-gcc-staging/label/Ubuntu14.04x64-mingw32/gcc-build/avr/avr5/libgcc/../../../../gcc/libgcc/config/avr/lib1funcs.S:1646
    1ac6:	aa 1f       	adc	r26, r26
/home/jenkins-mingw32/workspace/avr-gcc-staging/label/Ubuntu14.04x64-mingw32/gcc-build/avr/avr5/libgcc/../../../../gcc/libgcc/config/avr/lib1funcs.S:1647
    1ac8:	bb 1f       	adc	r27, r27
/home/jenkins-mingw32/workspace/avr-gcc-staging/label/Ubuntu14.04x64-mingw32/gcc-build/avr/avr5/libgcc/../../../../gcc/libgcc/config/avr/lib1funcs.S:1648
    1aca:	ee 1f       	adc	r30, r30
/home/jenkins-mingw32/workspace/avr-gcc-staging/label/Ubuntu14.04x64-mingw32/gcc-build/avr/avr5/libgcc/../../../../gcc/libgcc/config/avr/lib1funcs.S:1649
    1acc:	ff 1f       	adc	r31, r31
/home/jenkins-mingw32/workspace/avr-gcc-staging/label/Ubuntu14.04x64-mingw32/gcc-build/avr/avr5/libgcc/../../../../gcc/libgcc/config/avr/lib1funcs.S:1650
    1ace:	a2 17       	cp	r26, r18
/home/jenkins-mingw32/workspace/avr-gcc-staging/label/Ubuntu14.04x64-mingw32/gcc-build/avr/avr5/libgcc/../../../../gcc/libgcc/config/avr/lib1funcs.S:1651
    1ad0:	b3 07       	cpc	r27, r19
/home/jenkins-mingw32/workspace/avr-gcc-staging/label/Ubuntu14.04x64-mingw32/gcc-build/avr/avr5/libgcc/../../../../gcc/libgcc/config/avr/lib1funcs.S:1652
    1ad2:	e4 07       	cpc	r30, r20
/home/jenkins-mingw32/workspace/avr-gcc-staging/label/Ubuntu14.04x64-mingw32/gcc-build/avr/avr5/libgcc/../../../../gcc/libgcc/config/avr/lib1funcs.S:1653
    1ad4:	f5 07       	cpc	r31, r21
/home/jenkins-mingw32/workspace/avr-gcc-staging/label/Ubuntu14.04x64-mingw32/gcc-build/avr/avr5/libgcc/../../../../gcc/libgcc/config/avr/lib1funcs.S:1654
    1ad6:	20 f0       	brcs	.+8      	; 0x1ae0 <__udivmodsi4_ep>
/home/jenkins-mingw32/workspace/avr-gcc-staging/label/Ubuntu14.04x64-mingw32/gcc-build/avr/avr5/libgcc/../../../../gcc/libgcc/config/avr/lib1funcs.S:1655
    1ad8:	a2 1b       	sub	r26, r18
/home/jenkins-mingw32/workspace/avr-gcc-staging/label/Ubuntu14.04x64-mingw32/gcc-build/avr/avr5/libgcc/../../../../gcc/libgcc/config/avr/lib1funcs.S:1656
    1ada:	b3 0b       	sbc	r27, r19
/home/jenkins-mingw32/workspace/avr-gcc-staging/label/Ubuntu14.04x64-mingw32/gcc-build/avr/avr5/libgcc/../../../../gcc/libgcc/config/avr/lib1funcs.S:1657
    1adc:	e4 0b       	sbc	r30, r20
/home/jenkins-mingw32/workspace/avr-gcc-staging/label/Ubuntu14.04x64-mingw32/gcc-build/avr/avr5/libgcc/../../../../gcc/libgcc/config/avr/lib1funcs.S:1658
    1ade:	f5 0b       	sbc	r31, r21

00001ae0 <__udivmodsi4_ep>:
/home/jenkins-mingw32/workspace/avr-gcc-staging/label/Ubuntu14.04x64-mingw32/gcc-build/avr/avr5/libgcc/../../../../gcc/libgcc/config/avr/lib1funcs.S:1660
    1ae0:	66 1f       	adc	r22, r22
/home/jenkins-mingw32/workspace/avr-gcc-staging/label/Ubuntu14.04x64-mingw32/gcc-build/avr/avr5/libgcc/../../../../gcc/libgcc/config/avr/lib1funcs.S:1661
    1ae2:	77 1f       	adc	r23, r23
/home/jenkins-mingw32/workspace/avr-gcc-staging/label/Ubuntu14.04x64-mingw32/gcc-build/avr/avr5/libgcc/../../../../gcc/libgcc/config/avr/lib1funcs.S:1662
    1ae4:	88 1f       	adc	r24, r24
/home/jenkins-mingw32/workspace/avr-gcc-staging/label/Ubuntu14.04x64-mingw32/gcc-build/avr/avr5/libgcc/../../../../gcc/libgcc/config/avr/lib1funcs.S:1663
    1ae6:	99 1f       	adc	r25, r25
/home/jenkins-mingw32/workspace/avr-gcc-staging/label/Ubuntu14.04x64-mingw32/gcc-build/avr/avr5/libgcc/../../../../gcc/libgcc/config/avr/lib1funcs.S:1664
    1ae8:	1a 94       	dec	r1
/home/jenkins-mingw32/workspace/avr-gcc-staging/label/Ubuntu14.04x64-mingw32/gcc-build/avr/avr5/libgcc/../../../../gcc/libgcc/config/avr/lib1funcs.S:1665
    1aea:	69 f7       	brne	.-38     	; 0x1ac6 <__udivmodsi4_loop>
/home/jenkins-mingw32/workspace/avr-gcc-staging/label/Ubuntu14.04x64-mingw32/gcc-build/avr/avr5/libgcc/../../../../gcc/libgcc/config/avr/lib1funcs.S:1667
    1aec:	60 95       	com	r22
/home/jenkins-mingw32/workspace/avr-gcc-staging/label/Ubuntu14.04x64-mingw32/gcc-build/avr/avr5/libgcc/../../../../gcc/libgcc/config/avr/lib1funcs.S:1668
    1aee:	70 95       	com	r23
/home/jenkins-mingw32/workspace/avr-gcc-staging/label/Ubuntu14.04x64-mingw32/gcc-build/avr/avr5/libgcc/../../../../gcc/libgcc/config/avr/lib1funcs.S:1669
    1af0:	80 95       	com	r24
/home/jenkins-mingw32/workspace/avr-gcc-staging/label/Ubuntu14.04x64-mingw32/gcc-build/avr/avr5/libgcc/../../../../gcc/libgcc/config/avr/lib1funcs.S:1670
    1af2:	90 95       	com	r25
/home/jenkins-mingw32/workspace/avr-gcc-staging/label/Ubuntu14.04x64-mingw32/gcc-build/avr/avr5/libgcc/../../../../gcc/libgcc/config/avr/lib1funcs.S:1672
    1af4:	9b 01       	movw	r18, r22
/home/jenkins-mingw32/workspace/avr-gcc-staging/label/Ubuntu14.04x64-mingw32/gcc-build/avr/avr5/libgcc/../../../../gcc/libgcc/config/avr/lib1funcs.S:1674
    1af6:	ac 01       	movw	r20, r24
/home/jenkins-mingw32/workspace/avr-gcc-staging/label/Ubuntu14.04x64-mingw32/gcc-build/avr/avr5/libgcc/../../../../gcc/libgcc/config/avr/lib1funcs.S:1676
    1af8:	bd 01       	movw	r22, r26
/home/jenkins-mingw32/workspace/avr-gcc-staging/label/Ubuntu14.04x64-mingw32/gcc-build/avr/avr5/libgcc/../../../../gcc/libgcc/config/avr/lib1funcs.S:1678
    1afa:	cf 01       	movw	r24, r30
/home/jenkins-mingw32/workspace/avr-gcc-staging/label/Ubuntu14.04x64-mingw32/gcc-build/avr/avr5/libgcc/../../../../gcc/libgcc/config/avr/lib1funcs.S:1680
    1afc:	08 95       	ret

00001afe <__umulhisi3>:
__umulhisi3():
/home/jenkins-mingw32/workspace/avr-gcc-staging/label/Ubuntu14.04x64-mingw32/gcc-build/avr/avr5/libgcc/../../../../gcc/libgcc/config/avr/lib1funcs.S:564
    1afe:	a2 9f       	mul	r26, r18
/home/jenkins-mingw32/workspace/avr-gcc-staging/label/Ubuntu14.04x64-mingw32/gcc-build/avr/avr5/libgcc/../../../../gcc/libgcc/config/avr/lib1funcs.S:565
    1b00:	b0 01       	movw	r22, r0
/home/jenkins-mingw32/workspace/avr-gcc-staging/label/Ubuntu14.04x64-mingw32/gcc-build/avr/avr5/libgcc/../../../../gcc/libgcc/config/avr/lib1funcs.S:566
    1b02:	b3 9f       	mul	r27, r19
/home/jenkins-mingw32/workspace/avr-gcc-staging/label/Ubuntu14.04x64-mingw32/gcc-build/avr/avr5/libgcc/../../../../gcc/libgcc/config/avr/lib1funcs.S:567
    1b04:	c0 01       	movw	r24, r0
/home/jenkins-mingw32/workspace/avr-gcc-staging/label/Ubuntu14.04x64-mingw32/gcc-build/avr/avr5/libgcc/../../../../gcc/libgcc/config/avr/lib1funcs.S:568
    1b06:	a3 9f       	mul	r26, r19
/home/jenkins-mingw32/workspace/avr-gcc-staging/label/Ubuntu14.04x64-mingw32/gcc-build/avr/avr5/libgcc/../../../../gcc/libgcc/config/avr/lib1funcs.S:573
    1b08:	70 0d       	add	r23, r0
/home/jenkins-mingw32/workspace/avr-gcc-staging/label/Ubuntu14.04x64-mingw32/gcc-build/avr/avr5/libgcc/../../../../gcc/libgcc/config/avr/lib1funcs.S:574
    1b0a:	81 1d       	adc	r24, r1
/home/jenkins-mingw32/workspace/avr-gcc-staging/label/Ubuntu14.04x64-mingw32/gcc-build/avr/avr5/libgcc/../../../../gcc/libgcc/config/avr/lib1funcs.S:575
    1b0c:	11 24       	eor	r1, r1
/home/jenkins-mingw32/workspace/avr-gcc-staging/label/Ubuntu14.04x64-mingw32/gcc-build/avr/avr5/libgcc/../../../../gcc/libgcc/config/avr/lib1funcs.S:576
    1b0e:	91 1d       	adc	r25, r1
/home/jenkins-mingw32/workspace/avr-gcc-staging/label/Ubuntu14.04x64-mingw32/gcc-build/avr/avr5/libgcc/../../../../gcc/libgcc/config/avr/lib1funcs.S:580
    1b10:	b2 9f       	mul	r27, r18
/home/jenkins-mingw32/workspace/avr-gcc-staging/label/Ubuntu14.04x64-mingw32/gcc-build/avr/avr5/libgcc/../../../../gcc/libgcc/config/avr/lib1funcs.S:581
    1b12:	70 0d       	add	r23, r0
/home/jenkins-mingw32/workspace/avr-gcc-staging/label/Ubuntu14.04x64-mingw32/gcc-build/avr/avr5/libgcc/../../../../gcc/libgcc/config/avr/lib1funcs.S:582
    1b14:	81 1d       	adc	r24, r1
/home/jenkins-mingw32/workspace/avr-gcc-staging/label/Ubuntu14.04x64-mingw32/gcc-build/avr/avr5/libgcc/../../../../gcc/libgcc/config/avr/lib1funcs.S:583
    1b16:	11 24       	eor	r1, r1
/home/jenkins-mingw32/workspace/avr-gcc-staging/label/Ubuntu14.04x64-mingw32/gcc-build/avr/avr5/libgcc/../../../../gcc/libgcc/config/avr/lib1funcs.S:584
    1b18:	91 1d       	adc	r25, r1
/home/jenkins-mingw32/workspace/avr-gcc-staging/label/Ubuntu14.04x64-mingw32/gcc-build/avr/avr5/libgcc/../../../../gcc/libgcc/config/avr/lib1funcs.S:585
    1b1a:	08 95       	ret

00001b1c <__udivmodqi4>:
__udivmodqi4():
/home/jenkins-mingw32/workspace/avr-gcc-staging/label/Ubuntu14.04x64-mingw32/gcc-build/avr/avr5/libgcc/../../../../gcc/libgcc/config/avr/lib1funcs.S:1346
    1b1c:	99 1b       	sub	r25, r25
/home/jenkins-mingw32/workspace/avr-gcc-staging/label/Ubuntu14.04x64-mingw32/gcc-build/avr/avr5/libgcc/../../../../gcc/libgcc/config/avr/lib1funcs.S:1347
    1b1e:	79 e0       	ldi	r23, 0x09	; 9
/home/jenkins-mingw32/workspace/avr-gcc-staging/label/Ubuntu14.04x64-mingw32/gcc-build/avr/avr5/libgcc/../../../../gcc/libgcc/config/avr/lib1funcs.S:1348
    1b20:	04 c0       	rjmp	.+8      	; 0x1b2a <__udivmodqi4_ep>

00001b22 <__udivmodqi4_loop>:
/home/jenkins-mingw32/workspace/avr-gcc-staging/label/Ubuntu14.04x64-mingw32/gcc-build/avr/avr5/libgcc/../../../../gcc/libgcc/config/avr/lib1funcs.S:1350
    1b22:	99 1f       	adc	r25, r25
/home/jenkins-mingw32/workspace/avr-gcc-staging/label/Ubuntu14.04x64-mingw32/gcc-build/avr/avr5/libgcc/../../../../gcc/libgcc/config/avr/lib1funcs.S:1351
    1b24:	96 17       	cp	r25, r22
/home/jenkins-mingw32/workspace/avr-gcc-staging/label/Ubuntu14.04x64-mingw32/gcc-build/avr/avr5/libgcc/../../../../gcc/libgcc/config/avr/lib1funcs.S:1352
    1b26:	08 f0       	brcs	.+2      	; 0x1b2a <__udivmodqi4_ep>
/home/jenkins-mingw32/workspace/avr-gcc-staging/label/Ubuntu14.04x64-mingw32/gcc-build/avr/avr5/libgcc/../../../../gcc/libgcc/config/avr/lib1funcs.S:1353
    1b28:	96 1b       	sub	r25, r22

00001b2a <__udivmodqi4_ep>:
/home/jenkins-mingw32/workspace/avr-gcc-staging/label/Ubuntu14.04x64-mingw32/gcc-build/avr/avr5/libgcc/../../../../gcc/libgcc/config/avr/lib1funcs.S:1355
    1b2a:	88 1f       	adc	r24, r24
/home/jenkins-mingw32/workspace/avr-gcc-staging/label/Ubuntu14.04x64-mingw32/gcc-build/avr/avr5/libgcc/../../../../gcc/libgcc/config/avr/lib1funcs.S:1356
    1b2c:	7a 95       	dec	r23
/home/jenkins-mingw32/workspace/avr-gcc-staging/label/Ubuntu14.04x64-mingw32/gcc-build/avr/avr5/libgcc/../../../../gcc/libgcc/config/avr/lib1funcs.S:1357
    1b2e:	c9 f7       	brne	.-14     	; 0x1b22 <__udivmodqi4_loop>
/home/jenkins-mingw32/workspace/avr-gcc-staging/label/Ubuntu14.04x64-mingw32/gcc-build/avr/avr5/libgcc/../../../../gcc/libgcc/config/avr/lib1funcs.S:1358
    1b30:	80 95       	com	r24
/home/jenkins-mingw32/workspace/avr-gcc-staging/label/Ubuntu14.04x64-mingw32/gcc-build/avr/avr5/libgcc/../../../../gcc/libgcc/config/avr/lib1funcs.S:1360
    1b32:	08 95       	ret

00001b34 <__tablejump2__>:
__tablejump2__():
/home/jenkins-mingw32/workspace/avr-gcc-staging/label/Ubuntu14.04x64-mingw32/gcc-build/avr/avr5/libgcc/../../../../gcc/libgcc/config/avr/lib1funcs.S:2296
    1b34:	ee 0f       	add	r30, r30
/home/jenkins-mingw32/workspace/avr-gcc-staging/label/Ubuntu14.04x64-mingw32/gcc-build/avr/avr5/libgcc/../../../../gcc/libgcc/config/avr/lib1funcs.S:2297
    1b36:	ff 1f       	adc	r31, r31
/home/jenkins-mingw32/workspace/avr-gcc-staging/label/Ubuntu14.04x64-mingw32/gcc-build/avr/avr5/libgcc/../../../../gcc/libgcc/config/avr/lib1funcs.S:2328
    1b38:	05 90       	lpm	r0, Z+
/home/jenkins-mingw32/workspace/avr-gcc-staging/label/Ubuntu14.04x64-mingw32/gcc-build/avr/avr5/libgcc/../../../../gcc/libgcc/config/avr/lib1funcs.S:2329
    1b3a:	f4 91       	lpm	r31, Z
/home/jenkins-mingw32/workspace/avr-gcc-staging/label/Ubuntu14.04x64-mingw32/gcc-build/avr/avr5/libgcc/../../../../gcc/libgcc/config/avr/lib1funcs.S:2330
    1b3c:	e0 2d       	mov	r30, r0
/home/jenkins-mingw32/workspace/avr-gcc-staging/label/Ubuntu14.04x64-mingw32/gcc-build/avr/avr5/libgcc/../../../../gcc/libgcc/config/avr/lib1funcs.S:2331
    1b3e:	09 94       	ijmp

00001b40 <_exit>:
exit():
/home/jenkins-mingw32/workspace/avr-gcc-staging/label/Ubuntu14.04x64-mingw32/gcc-build/avr/avr5/libgcc/../../../../gcc/libgcc/config/avr/lib1funcs.S:2278
    1b40:	f8 94       	cli

00001b42 <__stop_program>:
__stop_program():
/home/jenkins-mingw32/workspace/avr-gcc-staging/label/Ubuntu14.04x64-mingw32/gcc-build/avr/avr5/libgcc/../../../../gcc/libgcc/config/avr/lib1funcs.S:2280
    1b42:	ff cf       	rjmp	.-2      	; 0x1b42 <__stop_program>
